ARM GAS  C:\Users\Cihat\AppData\Local\Temp\ccrU1jyV.s 			page 1


   1              		.cpu cortex-m4
   2              		.eabi_attribute 27, 1
   3              		.eabi_attribute 28, 1
   4              		.eabi_attribute 20, 1
   5              		.eabi_attribute 21, 1
   6              		.eabi_attribute 23, 3
   7              		.eabi_attribute 24, 1
   8              		.eabi_attribute 25, 1
   9              		.eabi_attribute 26, 1
  10              		.eabi_attribute 30, 1
  11              		.eabi_attribute 34, 1
  12              		.eabi_attribute 18, 4
  13              		.file	"diskio.c"
  14              		.text
  15              	.Ltext0:
  16              		.cfi_sections	.debug_frame
  17              		.section	.text.disk_status,"ax",%progbits
  18              		.align	1
  19              		.global	disk_status
  20              		.syntax unified
  21              		.thumb
  22              		.thumb_func
  23              		.fpu fpv4-sp-d16
  25              	disk_status:
  26              	.LFB130:
  27              		.file 1 "Middlewares/Third_Party/FatFs/src/diskio.c"
   1:Middlewares/Third_Party/FatFs/src/diskio.c **** /*-----------------------------------------------------------------------*/
   2:Middlewares/Third_Party/FatFs/src/diskio.c **** /* Low level disk I/O module skeleton for FatFs     (C)ChaN, 2017        */
   3:Middlewares/Third_Party/FatFs/src/diskio.c **** /*                                                                       */
   4:Middlewares/Third_Party/FatFs/src/diskio.c **** /*   Portions COPYRIGHT 2017 STMicroelectronics                          */
   5:Middlewares/Third_Party/FatFs/src/diskio.c **** /*   Portions Copyright (C) 2017, ChaN, all right reserved               */
   6:Middlewares/Third_Party/FatFs/src/diskio.c **** /*-----------------------------------------------------------------------*/
   7:Middlewares/Third_Party/FatFs/src/diskio.c **** /* If a working storage control module is available, it should be        */
   8:Middlewares/Third_Party/FatFs/src/diskio.c **** /* attached to the FatFs via a glue function rather than modifying it.   */
   9:Middlewares/Third_Party/FatFs/src/diskio.c **** /* This is an example of glue functions to attach various existing      */
  10:Middlewares/Third_Party/FatFs/src/diskio.c **** /* storage control modules to the FatFs module with a defined API.       */
  11:Middlewares/Third_Party/FatFs/src/diskio.c **** /*-----------------------------------------------------------------------*/
  12:Middlewares/Third_Party/FatFs/src/diskio.c **** 
  13:Middlewares/Third_Party/FatFs/src/diskio.c **** /* Includes ------------------------------------------------------------------*/
  14:Middlewares/Third_Party/FatFs/src/diskio.c **** #include "diskio.h"
  15:Middlewares/Third_Party/FatFs/src/diskio.c **** #include "ff_gen_drv.h"
  16:Middlewares/Third_Party/FatFs/src/diskio.c **** 
  17:Middlewares/Third_Party/FatFs/src/diskio.c **** #if defined ( __GNUC__ )
  18:Middlewares/Third_Party/FatFs/src/diskio.c **** #ifndef __weak
  19:Middlewares/Third_Party/FatFs/src/diskio.c **** #define __weak __attribute__((weak))
  20:Middlewares/Third_Party/FatFs/src/diskio.c **** #endif
  21:Middlewares/Third_Party/FatFs/src/diskio.c **** #endif
  22:Middlewares/Third_Party/FatFs/src/diskio.c **** 
  23:Middlewares/Third_Party/FatFs/src/diskio.c **** /* Private typedef -----------------------------------------------------------*/
  24:Middlewares/Third_Party/FatFs/src/diskio.c **** /* Private define ------------------------------------------------------------*/
  25:Middlewares/Third_Party/FatFs/src/diskio.c **** /* Private variables ---------------------------------------------------------*/
  26:Middlewares/Third_Party/FatFs/src/diskio.c **** extern Disk_drvTypeDef  disk;
  27:Middlewares/Third_Party/FatFs/src/diskio.c **** 
  28:Middlewares/Third_Party/FatFs/src/diskio.c **** /* Private function prototypes -----------------------------------------------*/
  29:Middlewares/Third_Party/FatFs/src/diskio.c **** /* Private functions ---------------------------------------------------------*/
  30:Middlewares/Third_Party/FatFs/src/diskio.c **** 
  31:Middlewares/Third_Party/FatFs/src/diskio.c **** /**
ARM GAS  C:\Users\Cihat\AppData\Local\Temp\ccrU1jyV.s 			page 2


  32:Middlewares/Third_Party/FatFs/src/diskio.c ****   * @brief  Gets Disk Status
  33:Middlewares/Third_Party/FatFs/src/diskio.c ****   * @param  pdrv: Physical drive number (0..)
  34:Middlewares/Third_Party/FatFs/src/diskio.c ****   * @retval DSTATUS: Operation status
  35:Middlewares/Third_Party/FatFs/src/diskio.c ****   */
  36:Middlewares/Third_Party/FatFs/src/diskio.c **** DSTATUS disk_status (
  37:Middlewares/Third_Party/FatFs/src/diskio.c **** 	BYTE pdrv		/* Physical drive number to identify the drive */
  38:Middlewares/Third_Party/FatFs/src/diskio.c **** )
  39:Middlewares/Third_Party/FatFs/src/diskio.c **** {
  28              		.loc 1 39 0
  29              		.cfi_startproc
  30              		@ args = 0, pretend = 0, frame = 0
  31              		@ frame_needed = 0, uses_anonymous_args = 0
  32              	.LVL0:
  33 0000 08B5     		push	{r3, lr}
  34              	.LCFI0:
  35              		.cfi_def_cfa_offset 8
  36              		.cfi_offset 3, -8
  37              		.cfi_offset 14, -4
  40:Middlewares/Third_Party/FatFs/src/diskio.c ****   DSTATUS stat;
  41:Middlewares/Third_Party/FatFs/src/diskio.c **** 
  42:Middlewares/Third_Party/FatFs/src/diskio.c ****   stat = disk.drv[pdrv]->disk_status(disk.lun[pdrv]);
  38              		.loc 1 42 0
  39 0002 044B     		ldr	r3, .L3
  40 0004 03EB8002 		add	r2, r3, r0, lsl #2
  41 0008 5268     		ldr	r2, [r2, #4]
  42 000a 5268     		ldr	r2, [r2, #4]
  43 000c 0344     		add	r3, r3, r0
  44 000e 187A     		ldrb	r0, [r3, #8]	@ zero_extendqisi2
  45              	.LVL1:
  46 0010 9047     		blx	r2
  47              	.LVL2:
  43:Middlewares/Third_Party/FatFs/src/diskio.c ****   return stat;
  44:Middlewares/Third_Party/FatFs/src/diskio.c **** }
  48              		.loc 1 44 0
  49 0012 08BD     		pop	{r3, pc}
  50              	.L4:
  51              		.align	2
  52              	.L3:
  53 0014 00000000 		.word	disk
  54              		.cfi_endproc
  55              	.LFE130:
  57              		.section	.text.disk_initialize,"ax",%progbits
  58              		.align	1
  59              		.global	disk_initialize
  60              		.syntax unified
  61              		.thumb
  62              		.thumb_func
  63              		.fpu fpv4-sp-d16
  65              	disk_initialize:
  66              	.LFB131:
  45:Middlewares/Third_Party/FatFs/src/diskio.c **** 
  46:Middlewares/Third_Party/FatFs/src/diskio.c **** /**
  47:Middlewares/Third_Party/FatFs/src/diskio.c ****   * @brief  Initializes a Drive
  48:Middlewares/Third_Party/FatFs/src/diskio.c ****   * @param  pdrv: Physical drive number (0..)
  49:Middlewares/Third_Party/FatFs/src/diskio.c ****   * @retval DSTATUS: Operation status
  50:Middlewares/Third_Party/FatFs/src/diskio.c ****   */
  51:Middlewares/Third_Party/FatFs/src/diskio.c **** DSTATUS disk_initialize (
ARM GAS  C:\Users\Cihat\AppData\Local\Temp\ccrU1jyV.s 			page 3


  52:Middlewares/Third_Party/FatFs/src/diskio.c **** 	BYTE pdrv				/* Physical drive nmuber to identify the drive */
  53:Middlewares/Third_Party/FatFs/src/diskio.c **** )
  54:Middlewares/Third_Party/FatFs/src/diskio.c **** {
  67              		.loc 1 54 0
  68              		.cfi_startproc
  69              		@ args = 0, pretend = 0, frame = 0
  70              		@ frame_needed = 0, uses_anonymous_args = 0
  71              	.LVL3:
  72 0000 08B5     		push	{r3, lr}
  73              	.LCFI1:
  74              		.cfi_def_cfa_offset 8
  75              		.cfi_offset 3, -8
  76              		.cfi_offset 14, -4
  77              	.LVL4:
  55:Middlewares/Third_Party/FatFs/src/diskio.c ****   DSTATUS stat = RES_OK;
  56:Middlewares/Third_Party/FatFs/src/diskio.c **** 
  57:Middlewares/Third_Party/FatFs/src/diskio.c ****   if(disk.is_initialized[pdrv] == 0)
  78              		.loc 1 57 0
  79 0002 084B     		ldr	r3, .L9
  80 0004 1B5C     		ldrb	r3, [r3, r0]	@ zero_extendqisi2
  81 0006 53B9     		cbnz	r3, .L7
  58:Middlewares/Third_Party/FatFs/src/diskio.c ****   {
  59:Middlewares/Third_Party/FatFs/src/diskio.c ****     disk.is_initialized[pdrv] = 1;
  82              		.loc 1 59 0
  83 0008 064B     		ldr	r3, .L9
  84 000a 0122     		movs	r2, #1
  85 000c 1A54     		strb	r2, [r3, r0]
  60:Middlewares/Third_Party/FatFs/src/diskio.c ****     stat = disk.drv[pdrv]->disk_initialize(disk.lun[pdrv]);
  86              		.loc 1 60 0
  87 000e 03EB8002 		add	r2, r3, r0, lsl #2
  88 0012 5268     		ldr	r2, [r2, #4]
  89 0014 1268     		ldr	r2, [r2]
  90 0016 1844     		add	r0, r0, r3
  91              	.LVL5:
  92 0018 007A     		ldrb	r0, [r0, #8]	@ zero_extendqisi2
  93 001a 9047     		blx	r2
  94              	.LVL6:
  95              	.L6:
  61:Middlewares/Third_Party/FatFs/src/diskio.c ****   }
  62:Middlewares/Third_Party/FatFs/src/diskio.c ****   return stat;
  63:Middlewares/Third_Party/FatFs/src/diskio.c **** }
  96              		.loc 1 63 0
  97 001c 08BD     		pop	{r3, pc}
  98              	.LVL7:
  99              	.L7:
  55:Middlewares/Third_Party/FatFs/src/diskio.c **** 
 100              		.loc 1 55 0
 101 001e 0020     		movs	r0, #0
 102              	.LVL8:
 103 0020 FCE7     		b	.L6
 104              	.L10:
 105 0022 00BF     		.align	2
 106              	.L9:
 107 0024 00000000 		.word	disk
 108              		.cfi_endproc
 109              	.LFE131:
 111              		.section	.text.disk_read,"ax",%progbits
ARM GAS  C:\Users\Cihat\AppData\Local\Temp\ccrU1jyV.s 			page 4


 112              		.align	1
 113              		.global	disk_read
 114              		.syntax unified
 115              		.thumb
 116              		.thumb_func
 117              		.fpu fpv4-sp-d16
 119              	disk_read:
 120              	.LFB132:
  64:Middlewares/Third_Party/FatFs/src/diskio.c **** 
  65:Middlewares/Third_Party/FatFs/src/diskio.c **** /**
  66:Middlewares/Third_Party/FatFs/src/diskio.c ****   * @brief  Reads Sector(s)
  67:Middlewares/Third_Party/FatFs/src/diskio.c ****   * @param  pdrv: Physical drive number (0..)
  68:Middlewares/Third_Party/FatFs/src/diskio.c ****   * @param  *buff: Data buffer to store read data
  69:Middlewares/Third_Party/FatFs/src/diskio.c ****   * @param  sector: Sector address (LBA)
  70:Middlewares/Third_Party/FatFs/src/diskio.c ****   * @param  count: Number of sectors to read (1..128)
  71:Middlewares/Third_Party/FatFs/src/diskio.c ****   * @retval DRESULT: Operation result
  72:Middlewares/Third_Party/FatFs/src/diskio.c ****   */
  73:Middlewares/Third_Party/FatFs/src/diskio.c **** DRESULT disk_read (
  74:Middlewares/Third_Party/FatFs/src/diskio.c **** 	BYTE pdrv,		/* Physical drive nmuber to identify the drive */
  75:Middlewares/Third_Party/FatFs/src/diskio.c **** 	BYTE *buff,		/* Data buffer to store read data */
  76:Middlewares/Third_Party/FatFs/src/diskio.c **** 	DWORD sector,	        /* Sector address in LBA */
  77:Middlewares/Third_Party/FatFs/src/diskio.c **** 	UINT count		/* Number of sectors to read */
  78:Middlewares/Third_Party/FatFs/src/diskio.c **** )
  79:Middlewares/Third_Party/FatFs/src/diskio.c **** {
 121              		.loc 1 79 0
 122              		.cfi_startproc
 123              		@ args = 0, pretend = 0, frame = 0
 124              		@ frame_needed = 0, uses_anonymous_args = 0
 125              	.LVL9:
 126 0000 38B5     		push	{r3, r4, r5, lr}
 127              	.LCFI2:
 128              		.cfi_def_cfa_offset 16
 129              		.cfi_offset 3, -16
 130              		.cfi_offset 4, -12
 131              		.cfi_offset 5, -8
 132              		.cfi_offset 14, -4
  80:Middlewares/Third_Party/FatFs/src/diskio.c ****   DRESULT res;
  81:Middlewares/Third_Party/FatFs/src/diskio.c **** 
  82:Middlewares/Third_Party/FatFs/src/diskio.c ****   res = disk.drv[pdrv]->disk_read(disk.lun[pdrv], buff, sector, count);
 133              		.loc 1 82 0
 134 0002 044C     		ldr	r4, .L13
 135 0004 04EB8005 		add	r5, r4, r0, lsl #2
 136 0008 6D68     		ldr	r5, [r5, #4]
 137 000a AD68     		ldr	r5, [r5, #8]
 138 000c 0444     		add	r4, r4, r0
 139 000e 207A     		ldrb	r0, [r4, #8]	@ zero_extendqisi2
 140              	.LVL10:
 141 0010 A847     		blx	r5
 142              	.LVL11:
  83:Middlewares/Third_Party/FatFs/src/diskio.c ****   return res;
  84:Middlewares/Third_Party/FatFs/src/diskio.c **** }
 143              		.loc 1 84 0
 144 0012 38BD     		pop	{r3, r4, r5, pc}
 145              	.L14:
 146              		.align	2
 147              	.L13:
 148 0014 00000000 		.word	disk
ARM GAS  C:\Users\Cihat\AppData\Local\Temp\ccrU1jyV.s 			page 5


 149              		.cfi_endproc
 150              	.LFE132:
 152              		.section	.text.disk_write,"ax",%progbits
 153              		.align	1
 154              		.global	disk_write
 155              		.syntax unified
 156              		.thumb
 157              		.thumb_func
 158              		.fpu fpv4-sp-d16
 160              	disk_write:
 161              	.LFB133:
  85:Middlewares/Third_Party/FatFs/src/diskio.c **** 
  86:Middlewares/Third_Party/FatFs/src/diskio.c **** /**
  87:Middlewares/Third_Party/FatFs/src/diskio.c ****   * @brief  Writes Sector(s)
  88:Middlewares/Third_Party/FatFs/src/diskio.c ****   * @param  pdrv: Physical drive number (0..)
  89:Middlewares/Third_Party/FatFs/src/diskio.c ****   * @param  *buff: Data to be written
  90:Middlewares/Third_Party/FatFs/src/diskio.c ****   * @param  sector: Sector address (LBA)
  91:Middlewares/Third_Party/FatFs/src/diskio.c ****   * @param  count: Number of sectors to write (1..128)
  92:Middlewares/Third_Party/FatFs/src/diskio.c ****   * @retval DRESULT: Operation result
  93:Middlewares/Third_Party/FatFs/src/diskio.c ****   */
  94:Middlewares/Third_Party/FatFs/src/diskio.c **** #if _USE_WRITE == 1
  95:Middlewares/Third_Party/FatFs/src/diskio.c **** DRESULT disk_write (
  96:Middlewares/Third_Party/FatFs/src/diskio.c **** 	BYTE pdrv,		/* Physical drive nmuber to identify the drive */
  97:Middlewares/Third_Party/FatFs/src/diskio.c **** 	const BYTE *buff,	/* Data to be written */
  98:Middlewares/Third_Party/FatFs/src/diskio.c **** 	DWORD sector,		/* Sector address in LBA */
  99:Middlewares/Third_Party/FatFs/src/diskio.c **** 	UINT count        	/* Number of sectors to write */
 100:Middlewares/Third_Party/FatFs/src/diskio.c **** )
 101:Middlewares/Third_Party/FatFs/src/diskio.c **** {
 162              		.loc 1 101 0
 163              		.cfi_startproc
 164              		@ args = 0, pretend = 0, frame = 0
 165              		@ frame_needed = 0, uses_anonymous_args = 0
 166              	.LVL12:
 167 0000 38B5     		push	{r3, r4, r5, lr}
 168              	.LCFI3:
 169              		.cfi_def_cfa_offset 16
 170              		.cfi_offset 3, -16
 171              		.cfi_offset 4, -12
 172              		.cfi_offset 5, -8
 173              		.cfi_offset 14, -4
 102:Middlewares/Third_Party/FatFs/src/diskio.c ****   DRESULT res;
 103:Middlewares/Third_Party/FatFs/src/diskio.c **** 
 104:Middlewares/Third_Party/FatFs/src/diskio.c ****   res = disk.drv[pdrv]->disk_write(disk.lun[pdrv], buff, sector, count);
 174              		.loc 1 104 0
 175 0002 044C     		ldr	r4, .L17
 176 0004 04EB8005 		add	r5, r4, r0, lsl #2
 177 0008 6D68     		ldr	r5, [r5, #4]
 178 000a ED68     		ldr	r5, [r5, #12]
 179 000c 0444     		add	r4, r4, r0
 180 000e 207A     		ldrb	r0, [r4, #8]	@ zero_extendqisi2
 181              	.LVL13:
 182 0010 A847     		blx	r5
 183              	.LVL14:
 105:Middlewares/Third_Party/FatFs/src/diskio.c ****   return res;
 106:Middlewares/Third_Party/FatFs/src/diskio.c **** }
 184              		.loc 1 106 0
 185 0012 38BD     		pop	{r3, r4, r5, pc}
ARM GAS  C:\Users\Cihat\AppData\Local\Temp\ccrU1jyV.s 			page 6


 186              	.L18:
 187              		.align	2
 188              	.L17:
 189 0014 00000000 		.word	disk
 190              		.cfi_endproc
 191              	.LFE133:
 193              		.section	.text.disk_ioctl,"ax",%progbits
 194              		.align	1
 195              		.global	disk_ioctl
 196              		.syntax unified
 197              		.thumb
 198              		.thumb_func
 199              		.fpu fpv4-sp-d16
 201              	disk_ioctl:
 202              	.LFB134:
 107:Middlewares/Third_Party/FatFs/src/diskio.c **** #endif /* _USE_WRITE == 1 */
 108:Middlewares/Third_Party/FatFs/src/diskio.c **** 
 109:Middlewares/Third_Party/FatFs/src/diskio.c **** /**
 110:Middlewares/Third_Party/FatFs/src/diskio.c ****   * @brief  I/O control operation
 111:Middlewares/Third_Party/FatFs/src/diskio.c ****   * @param  pdrv: Physical drive number (0..)
 112:Middlewares/Third_Party/FatFs/src/diskio.c ****   * @param  cmd: Control code
 113:Middlewares/Third_Party/FatFs/src/diskio.c ****   * @param  *buff: Buffer to send/receive control data
 114:Middlewares/Third_Party/FatFs/src/diskio.c ****   * @retval DRESULT: Operation result
 115:Middlewares/Third_Party/FatFs/src/diskio.c ****   */
 116:Middlewares/Third_Party/FatFs/src/diskio.c **** #if _USE_IOCTL == 1
 117:Middlewares/Third_Party/FatFs/src/diskio.c **** DRESULT disk_ioctl (
 118:Middlewares/Third_Party/FatFs/src/diskio.c **** 	BYTE pdrv,		/* Physical drive nmuber (0..) */
 119:Middlewares/Third_Party/FatFs/src/diskio.c **** 	BYTE cmd,		/* Control code */
 120:Middlewares/Third_Party/FatFs/src/diskio.c **** 	void *buff		/* Buffer to send/receive control data */
 121:Middlewares/Third_Party/FatFs/src/diskio.c **** )
 122:Middlewares/Third_Party/FatFs/src/diskio.c **** {
 203              		.loc 1 122 0
 204              		.cfi_startproc
 205              		@ args = 0, pretend = 0, frame = 0
 206              		@ frame_needed = 0, uses_anonymous_args = 0
 207              	.LVL15:
 208 0000 10B5     		push	{r4, lr}
 209              	.LCFI4:
 210              		.cfi_def_cfa_offset 8
 211              		.cfi_offset 4, -8
 212              		.cfi_offset 14, -4
 123:Middlewares/Third_Party/FatFs/src/diskio.c ****   DRESULT res;
 124:Middlewares/Third_Party/FatFs/src/diskio.c **** 
 125:Middlewares/Third_Party/FatFs/src/diskio.c ****   res = disk.drv[pdrv]->disk_ioctl(disk.lun[pdrv], cmd, buff);
 213              		.loc 1 125 0
 214 0002 044B     		ldr	r3, .L21
 215 0004 03EB8004 		add	r4, r3, r0, lsl #2
 216 0008 6468     		ldr	r4, [r4, #4]
 217 000a 2469     		ldr	r4, [r4, #16]
 218 000c 0344     		add	r3, r3, r0
 219 000e 187A     		ldrb	r0, [r3, #8]	@ zero_extendqisi2
 220              	.LVL16:
 221 0010 A047     		blx	r4
 222              	.LVL17:
 126:Middlewares/Third_Party/FatFs/src/diskio.c ****   return res;
 127:Middlewares/Third_Party/FatFs/src/diskio.c **** }
 223              		.loc 1 127 0
ARM GAS  C:\Users\Cihat\AppData\Local\Temp\ccrU1jyV.s 			page 7


 224 0012 10BD     		pop	{r4, pc}
 225              	.L22:
 226              		.align	2
 227              	.L21:
 228 0014 00000000 		.word	disk
 229              		.cfi_endproc
 230              	.LFE134:
 232              		.section	.text.get_fattime,"ax",%progbits
 233              		.align	1
 234              		.weak	get_fattime
 235              		.syntax unified
 236              		.thumb
 237              		.thumb_func
 238              		.fpu fpv4-sp-d16
 240              	get_fattime:
 241              	.LFB135:
 128:Middlewares/Third_Party/FatFs/src/diskio.c **** #endif /* _USE_IOCTL == 1 */
 129:Middlewares/Third_Party/FatFs/src/diskio.c **** 
 130:Middlewares/Third_Party/FatFs/src/diskio.c **** /**
 131:Middlewares/Third_Party/FatFs/src/diskio.c ****   * @brief  Gets Time from RTC
 132:Middlewares/Third_Party/FatFs/src/diskio.c ****   * @param  None
 133:Middlewares/Third_Party/FatFs/src/diskio.c ****   * @retval Time in DWORD
 134:Middlewares/Third_Party/FatFs/src/diskio.c ****   */
 135:Middlewares/Third_Party/FatFs/src/diskio.c **** __weak DWORD get_fattime (void)
 136:Middlewares/Third_Party/FatFs/src/diskio.c **** {
 242              		.loc 1 136 0
 243              		.cfi_startproc
 244              		@ args = 0, pretend = 0, frame = 0
 245              		@ frame_needed = 0, uses_anonymous_args = 0
 246              		@ link register save eliminated.
 137:Middlewares/Third_Party/FatFs/src/diskio.c ****   return 0;
 138:Middlewares/Third_Party/FatFs/src/diskio.c **** }
 247              		.loc 1 138 0
 248 0000 0020     		movs	r0, #0
 249 0002 7047     		bx	lr
 250              		.cfi_endproc
 251              	.LFE135:
 253              		.text
 254              	.Letext0:
 255              		.file 2 "Middlewares/Third_Party/FatFs/src/integer.h"
 256              		.file 3 "Middlewares/Third_Party/FatFs/src/diskio.h"
 257              		.file 4 "c:\\touchgfx\\4.17.0\\env\\mingw\\msys\\1.0\\gnu-arm-gcc\\arm-none-eabi\\include\\machine
 258              		.file 5 "c:\\touchgfx\\4.17.0\\env\\mingw\\msys\\1.0\\gnu-arm-gcc\\arm-none-eabi\\include\\sys\\_s
 259              		.file 6 "Drivers/CMSIS/Include/core_cm4.h"
 260              		.file 7 "Drivers/CMSIS/Device/ST/STM32F4xx/Include/system_stm32f4xx.h"
 261              		.file 8 "Drivers/STM32F4xx_HAL_Driver/Inc/stm32f4xx_hal.h"
 262              		.file 9 "c:\\touchgfx\\4.17.0\\env\\mingw\\msys\\1.0\\gnu-arm-gcc\\arm-none-eabi\\include\\sys\\lo
 263              		.file 10 "c:\\touchgfx\\4.17.0\\env\\mingw\\msys\\1.0\\gnu-arm-gcc\\arm-none-eabi\\include\\sys\\_
 264              		.file 11 "c:\\touchgfx\\4.17.0\\env\\mingw\\msys\\1.0\\gnu-arm-gcc\\lib\\gcc\\arm-none-eabi\\7.3.1
 265              		.file 12 "c:\\touchgfx\\4.17.0\\env\\mingw\\msys\\1.0\\gnu-arm-gcc\\arm-none-eabi\\include\\sys\\r
 266              		.file 13 "c:\\touchgfx\\4.17.0\\env\\mingw\\msys\\1.0\\gnu-arm-gcc\\arm-none-eabi\\include\\stdlib
 267              		.file 14 "Middlewares/Third_Party/FatFs/src/ff_gen_drv.h"
ARM GAS  C:\Users\Cihat\AppData\Local\Temp\ccrU1jyV.s 			page 8

