ARM GAS  C:\Users\Cihat\AppData\Local\Temp\ccDoy5ep.s 			page 1


   1              		.cpu cortex-m4
   2              		.eabi_attribute 27, 1
   3              		.eabi_attribute 28, 1
   4              		.eabi_attribute 20, 1
   5              		.eabi_attribute 21, 1
   6              		.eabi_attribute 23, 3
   7              		.eabi_attribute 24, 1
   8              		.eabi_attribute 25, 1
   9              		.eabi_attribute 26, 1
  10              		.eabi_attribute 30, 1
  11              		.eabi_attribute 34, 1
  12              		.eabi_attribute 18, 4
  13              		.file	"stm32f4xx_hal_msp.c"
  14              		.text
  15              	.Ltext0:
  16              		.cfi_sections	.debug_frame
  17              		.section	.text.HAL_MspInit,"ax",%progbits
  18              		.align	1
  19              		.global	HAL_MspInit
  20              		.syntax unified
  21              		.thumb
  22              		.thumb_func
  23              		.fpu fpv4-sp-d16
  25              	HAL_MspInit:
  26              	.LFB130:
  27              		.file 1 "Core/Src/stm32f4xx_hal_msp.c"
   1:Core/Src/stm32f4xx_hal_msp.c **** /* USER CODE BEGIN Header */
   2:Core/Src/stm32f4xx_hal_msp.c **** /**
   3:Core/Src/stm32f4xx_hal_msp.c ****   ******************************************************************************
   4:Core/Src/stm32f4xx_hal_msp.c ****   * @file         stm32f4xx_hal_msp.c
   5:Core/Src/stm32f4xx_hal_msp.c ****   * @brief        This file provides code for the MSP Initialization
   6:Core/Src/stm32f4xx_hal_msp.c ****   *               and de-Initialization codes.
   7:Core/Src/stm32f4xx_hal_msp.c ****   ******************************************************************************
   8:Core/Src/stm32f4xx_hal_msp.c ****   * @attention
   9:Core/Src/stm32f4xx_hal_msp.c ****   *
  10:Core/Src/stm32f4xx_hal_msp.c ****   * <h2><center>&copy; Copyright (c) 2022 STMicroelectronics.
  11:Core/Src/stm32f4xx_hal_msp.c ****   * All rights reserved.</center></h2>
  12:Core/Src/stm32f4xx_hal_msp.c ****   *
  13:Core/Src/stm32f4xx_hal_msp.c ****   * This software component is licensed by ST under Ultimate Liberty license
  14:Core/Src/stm32f4xx_hal_msp.c ****   * SLA0044, the "License"; You may not use this file except in compliance with
  15:Core/Src/stm32f4xx_hal_msp.c ****   * the License. You may obtain a copy of the License at:
  16:Core/Src/stm32f4xx_hal_msp.c ****   *                             www.st.com/SLA0044
  17:Core/Src/stm32f4xx_hal_msp.c ****   *
  18:Core/Src/stm32f4xx_hal_msp.c ****   ******************************************************************************
  19:Core/Src/stm32f4xx_hal_msp.c ****   */
  20:Core/Src/stm32f4xx_hal_msp.c **** /* USER CODE END Header */
  21:Core/Src/stm32f4xx_hal_msp.c **** 
  22:Core/Src/stm32f4xx_hal_msp.c **** /* Includes ------------------------------------------------------------------*/
  23:Core/Src/stm32f4xx_hal_msp.c **** #include "main.h"
  24:Core/Src/stm32f4xx_hal_msp.c **** /* USER CODE BEGIN Includes */
  25:Core/Src/stm32f4xx_hal_msp.c **** 
  26:Core/Src/stm32f4xx_hal_msp.c **** /* USER CODE END Includes */
  27:Core/Src/stm32f4xx_hal_msp.c **** 
  28:Core/Src/stm32f4xx_hal_msp.c **** /* Private typedef -----------------------------------------------------------*/
  29:Core/Src/stm32f4xx_hal_msp.c **** /* USER CODE BEGIN TD */
  30:Core/Src/stm32f4xx_hal_msp.c **** 
  31:Core/Src/stm32f4xx_hal_msp.c **** /* USER CODE END TD */
ARM GAS  C:\Users\Cihat\AppData\Local\Temp\ccDoy5ep.s 			page 2


  32:Core/Src/stm32f4xx_hal_msp.c **** 
  33:Core/Src/stm32f4xx_hal_msp.c **** /* Private define ------------------------------------------------------------*/
  34:Core/Src/stm32f4xx_hal_msp.c **** /* USER CODE BEGIN Define */
  35:Core/Src/stm32f4xx_hal_msp.c **** 
  36:Core/Src/stm32f4xx_hal_msp.c **** /* USER CODE END Define */
  37:Core/Src/stm32f4xx_hal_msp.c **** 
  38:Core/Src/stm32f4xx_hal_msp.c **** /* Private macro -------------------------------------------------------------*/
  39:Core/Src/stm32f4xx_hal_msp.c **** /* USER CODE BEGIN Macro */
  40:Core/Src/stm32f4xx_hal_msp.c **** 
  41:Core/Src/stm32f4xx_hal_msp.c **** /* USER CODE END Macro */
  42:Core/Src/stm32f4xx_hal_msp.c **** 
  43:Core/Src/stm32f4xx_hal_msp.c **** /* Private variables ---------------------------------------------------------*/
  44:Core/Src/stm32f4xx_hal_msp.c **** /* USER CODE BEGIN PV */
  45:Core/Src/stm32f4xx_hal_msp.c **** 
  46:Core/Src/stm32f4xx_hal_msp.c **** /* USER CODE END PV */
  47:Core/Src/stm32f4xx_hal_msp.c **** 
  48:Core/Src/stm32f4xx_hal_msp.c **** /* Private function prototypes -----------------------------------------------*/
  49:Core/Src/stm32f4xx_hal_msp.c **** /* USER CODE BEGIN PFP */
  50:Core/Src/stm32f4xx_hal_msp.c **** 
  51:Core/Src/stm32f4xx_hal_msp.c **** /* USER CODE END PFP */
  52:Core/Src/stm32f4xx_hal_msp.c **** 
  53:Core/Src/stm32f4xx_hal_msp.c **** /* External functions --------------------------------------------------------*/
  54:Core/Src/stm32f4xx_hal_msp.c **** /* USER CODE BEGIN ExternalFunctions */
  55:Core/Src/stm32f4xx_hal_msp.c **** 
  56:Core/Src/stm32f4xx_hal_msp.c **** /* USER CODE END ExternalFunctions */
  57:Core/Src/stm32f4xx_hal_msp.c **** 
  58:Core/Src/stm32f4xx_hal_msp.c **** /* USER CODE BEGIN 0 */
  59:Core/Src/stm32f4xx_hal_msp.c **** 
  60:Core/Src/stm32f4xx_hal_msp.c **** /* USER CODE END 0 */
  61:Core/Src/stm32f4xx_hal_msp.c **** /**
  62:Core/Src/stm32f4xx_hal_msp.c ****   * Initializes the Global MSP.
  63:Core/Src/stm32f4xx_hal_msp.c ****   */
  64:Core/Src/stm32f4xx_hal_msp.c **** void HAL_MspInit(void)
  65:Core/Src/stm32f4xx_hal_msp.c **** {
  28              		.loc 1 65 0
  29              		.cfi_startproc
  30              		@ args = 0, pretend = 0, frame = 8
  31              		@ frame_needed = 0, uses_anonymous_args = 0
  32              		@ link register save eliminated.
  33 0000 82B0     		sub	sp, sp, #8
  34              	.LCFI0:
  35              		.cfi_def_cfa_offset 8
  36              	.LBB2:
  66:Core/Src/stm32f4xx_hal_msp.c ****   /* USER CODE BEGIN MspInit 0 */
  67:Core/Src/stm32f4xx_hal_msp.c **** 
  68:Core/Src/stm32f4xx_hal_msp.c ****   /* USER CODE END MspInit 0 */
  69:Core/Src/stm32f4xx_hal_msp.c **** 
  70:Core/Src/stm32f4xx_hal_msp.c ****   __HAL_RCC_SYSCFG_CLK_ENABLE();
  37              		.loc 1 70 0
  38 0002 0021     		movs	r1, #0
  39 0004 0091     		str	r1, [sp]
  40 0006 0B4B     		ldr	r3, .L3
  41 0008 5A6C     		ldr	r2, [r3, #68]
  42 000a 42F48042 		orr	r2, r2, #16384
  43 000e 5A64     		str	r2, [r3, #68]
  44 0010 5A6C     		ldr	r2, [r3, #68]
  45 0012 02F48042 		and	r2, r2, #16384
ARM GAS  C:\Users\Cihat\AppData\Local\Temp\ccDoy5ep.s 			page 3


  46 0016 0092     		str	r2, [sp]
  47 0018 009A     		ldr	r2, [sp]
  48              	.LBE2:
  49              	.LBB3:
  71:Core/Src/stm32f4xx_hal_msp.c ****   __HAL_RCC_PWR_CLK_ENABLE();
  50              		.loc 1 71 0
  51 001a 0191     		str	r1, [sp, #4]
  52 001c 1A6C     		ldr	r2, [r3, #64]
  53 001e 42F08052 		orr	r2, r2, #268435456
  54 0022 1A64     		str	r2, [r3, #64]
  55 0024 1B6C     		ldr	r3, [r3, #64]
  56 0026 03F08053 		and	r3, r3, #268435456
  57 002a 0193     		str	r3, [sp, #4]
  58 002c 019B     		ldr	r3, [sp, #4]
  59              	.LBE3:
  72:Core/Src/stm32f4xx_hal_msp.c **** 
  73:Core/Src/stm32f4xx_hal_msp.c ****   /* System interrupt init*/
  74:Core/Src/stm32f4xx_hal_msp.c **** 
  75:Core/Src/stm32f4xx_hal_msp.c ****   /* USER CODE BEGIN MspInit 1 */
  76:Core/Src/stm32f4xx_hal_msp.c **** 
  77:Core/Src/stm32f4xx_hal_msp.c ****   /* USER CODE END MspInit 1 */
  78:Core/Src/stm32f4xx_hal_msp.c **** }
  60              		.loc 1 78 0
  61 002e 02B0     		add	sp, sp, #8
  62              	.LCFI1:
  63              		.cfi_def_cfa_offset 0
  64              		@ sp needed
  65 0030 7047     		bx	lr
  66              	.L4:
  67 0032 00BF     		.align	2
  68              	.L3:
  69 0034 00380240 		.word	1073887232
  70              		.cfi_endproc
  71              	.LFE130:
  73              		.section	.text.HAL_SD_MspInit,"ax",%progbits
  74              		.align	1
  75              		.global	HAL_SD_MspInit
  76              		.syntax unified
  77              		.thumb
  78              		.thumb_func
  79              		.fpu fpv4-sp-d16
  81              	HAL_SD_MspInit:
  82              	.LFB131:
  79:Core/Src/stm32f4xx_hal_msp.c **** 
  80:Core/Src/stm32f4xx_hal_msp.c **** /**
  81:Core/Src/stm32f4xx_hal_msp.c **** * @brief SD MSP Initialization
  82:Core/Src/stm32f4xx_hal_msp.c **** * This function configures the hardware resources used in this example
  83:Core/Src/stm32f4xx_hal_msp.c **** * @param hsd: SD handle pointer
  84:Core/Src/stm32f4xx_hal_msp.c **** * @retval None
  85:Core/Src/stm32f4xx_hal_msp.c **** */
  86:Core/Src/stm32f4xx_hal_msp.c **** void HAL_SD_MspInit(SD_HandleTypeDef* hsd)
  87:Core/Src/stm32f4xx_hal_msp.c **** {
  83              		.loc 1 87 0
  84              		.cfi_startproc
  85              		@ args = 0, pretend = 0, frame = 96
  86              		@ frame_needed = 0, uses_anonymous_args = 0
  87              	.LVL0:
ARM GAS  C:\Users\Cihat\AppData\Local\Temp\ccDoy5ep.s 			page 4


  88 0000 F0B5     		push	{r4, r5, r6, r7, lr}
  89              	.LCFI2:
  90              		.cfi_def_cfa_offset 20
  91              		.cfi_offset 4, -20
  92              		.cfi_offset 5, -16
  93              		.cfi_offset 6, -12
  94              		.cfi_offset 7, -8
  95              		.cfi_offset 14, -4
  96 0002 99B0     		sub	sp, sp, #100
  97              	.LCFI3:
  98              		.cfi_def_cfa_offset 120
  99 0004 0446     		mov	r4, r0
  88:Core/Src/stm32f4xx_hal_msp.c ****   GPIO_InitTypeDef GPIO_InitStruct = {0};
 100              		.loc 1 88 0
 101 0006 0021     		movs	r1, #0
 102 0008 1391     		str	r1, [sp, #76]
 103 000a 1491     		str	r1, [sp, #80]
 104 000c 1591     		str	r1, [sp, #84]
 105 000e 1691     		str	r1, [sp, #88]
 106 0010 1791     		str	r1, [sp, #92]
  89:Core/Src/stm32f4xx_hal_msp.c ****   RCC_PeriphCLKInitTypeDef PeriphClkInitStruct = {0};
 107              		.loc 1 89 0
 108 0012 3C22     		movs	r2, #60
 109 0014 04A8     		add	r0, sp, #16
 110              	.LVL1:
 111 0016 FFF7FEFF 		bl	memset
 112              	.LVL2:
  90:Core/Src/stm32f4xx_hal_msp.c ****   if(hsd->Instance==SDIO)
 113              		.loc 1 90 0
 114 001a 2268     		ldr	r2, [r4]
 115 001c 244B     		ldr	r3, .L11
 116 001e 9A42     		cmp	r2, r3
 117 0020 01D0     		beq	.L9
 118              	.LVL3:
 119              	.L5:
  91:Core/Src/stm32f4xx_hal_msp.c ****   {
  92:Core/Src/stm32f4xx_hal_msp.c ****   /* USER CODE BEGIN SDIO_MspInit 0 */
  93:Core/Src/stm32f4xx_hal_msp.c **** 
  94:Core/Src/stm32f4xx_hal_msp.c ****   /* USER CODE END SDIO_MspInit 0 */
  95:Core/Src/stm32f4xx_hal_msp.c ****   /** Initializes the peripherals clock
  96:Core/Src/stm32f4xx_hal_msp.c ****   */
  97:Core/Src/stm32f4xx_hal_msp.c ****     PeriphClkInitStruct.PeriphClockSelection = RCC_PERIPHCLK_CLK48|RCC_PERIPHCLK_SDIO;
  98:Core/Src/stm32f4xx_hal_msp.c ****     PeriphClkInitStruct.Clk48ClockSelection = RCC_CLK48CLKSOURCE_PLLQ;
  99:Core/Src/stm32f4xx_hal_msp.c ****     PeriphClkInitStruct.SdioClockSelection = RCC_SDIOCLKSOURCE_CLK48;
 100:Core/Src/stm32f4xx_hal_msp.c ****     if (HAL_RCCEx_PeriphCLKConfig(&PeriphClkInitStruct) != HAL_OK)
 101:Core/Src/stm32f4xx_hal_msp.c ****     {
 102:Core/Src/stm32f4xx_hal_msp.c ****       Error_Handler();
 103:Core/Src/stm32f4xx_hal_msp.c ****     }
 104:Core/Src/stm32f4xx_hal_msp.c **** 
 105:Core/Src/stm32f4xx_hal_msp.c ****     /* Peripheral clock enable */
 106:Core/Src/stm32f4xx_hal_msp.c ****     __HAL_RCC_SDIO_CLK_ENABLE();
 107:Core/Src/stm32f4xx_hal_msp.c **** 
 108:Core/Src/stm32f4xx_hal_msp.c ****     __HAL_RCC_GPIOC_CLK_ENABLE();
 109:Core/Src/stm32f4xx_hal_msp.c ****     __HAL_RCC_GPIOD_CLK_ENABLE();
 110:Core/Src/stm32f4xx_hal_msp.c ****     /**SDIO GPIO Configuration
 111:Core/Src/stm32f4xx_hal_msp.c ****     PC12     ------> SDIO_CK
 112:Core/Src/stm32f4xx_hal_msp.c ****     PD2     ------> SDIO_CMD
ARM GAS  C:\Users\Cihat\AppData\Local\Temp\ccDoy5ep.s 			page 5


 113:Core/Src/stm32f4xx_hal_msp.c ****     PC8     ------> SDIO_D0
 114:Core/Src/stm32f4xx_hal_msp.c ****     */
 115:Core/Src/stm32f4xx_hal_msp.c ****     GPIO_InitStruct.Pin = GPIO_PIN_12|GPIO_PIN_8;
 116:Core/Src/stm32f4xx_hal_msp.c ****     GPIO_InitStruct.Mode = GPIO_MODE_AF_PP;
 117:Core/Src/stm32f4xx_hal_msp.c ****     GPIO_InitStruct.Pull = GPIO_NOPULL;
 118:Core/Src/stm32f4xx_hal_msp.c ****     GPIO_InitStruct.Speed = GPIO_SPEED_FREQ_VERY_HIGH;
 119:Core/Src/stm32f4xx_hal_msp.c ****     GPIO_InitStruct.Alternate = GPIO_AF12_SDIO;
 120:Core/Src/stm32f4xx_hal_msp.c ****     HAL_GPIO_Init(GPIOC, &GPIO_InitStruct);
 121:Core/Src/stm32f4xx_hal_msp.c **** 
 122:Core/Src/stm32f4xx_hal_msp.c ****     GPIO_InitStruct.Pin = GPIO_PIN_2;
 123:Core/Src/stm32f4xx_hal_msp.c ****     GPIO_InitStruct.Mode = GPIO_MODE_AF_PP;
 124:Core/Src/stm32f4xx_hal_msp.c ****     GPIO_InitStruct.Pull = GPIO_NOPULL;
 125:Core/Src/stm32f4xx_hal_msp.c ****     GPIO_InitStruct.Speed = GPIO_SPEED_FREQ_VERY_HIGH;
 126:Core/Src/stm32f4xx_hal_msp.c ****     GPIO_InitStruct.Alternate = GPIO_AF12_SDIO;
 127:Core/Src/stm32f4xx_hal_msp.c ****     HAL_GPIO_Init(GPIOD, &GPIO_InitStruct);
 128:Core/Src/stm32f4xx_hal_msp.c **** 
 129:Core/Src/stm32f4xx_hal_msp.c ****   /* USER CODE BEGIN SDIO_MspInit 1 */
 130:Core/Src/stm32f4xx_hal_msp.c **** 
 131:Core/Src/stm32f4xx_hal_msp.c ****   /* USER CODE END SDIO_MspInit 1 */
 132:Core/Src/stm32f4xx_hal_msp.c ****   }
 133:Core/Src/stm32f4xx_hal_msp.c **** 
 134:Core/Src/stm32f4xx_hal_msp.c **** }
 120              		.loc 1 134 0
 121 0022 19B0     		add	sp, sp, #100
 122              	.LCFI4:
 123              		.cfi_remember_state
 124              		.cfi_def_cfa_offset 20
 125              		@ sp needed
 126 0024 F0BD     		pop	{r4, r5, r6, r7, pc}
 127              	.LVL4:
 128              	.L9:
 129              	.LCFI5:
 130              		.cfi_restore_state
  97:Core/Src/stm32f4xx_hal_msp.c ****     PeriphClkInitStruct.Clk48ClockSelection = RCC_CLK48CLKSOURCE_PLLQ;
 131              		.loc 1 97 0
 132 0026 18A8     		add	r0, sp, #96
 133 0028 4FF4C073 		mov	r3, #384
 134 002c 40F8503D 		str	r3, [r0, #-80]!
 100:Core/Src/stm32f4xx_hal_msp.c ****     {
 135              		.loc 1 100 0
 136 0030 FFF7FEFF 		bl	HAL_RCCEx_PeriphCLKConfig
 137              	.LVL5:
 138 0034 0028     		cmp	r0, #0
 139 0036 38D1     		bne	.L10
 140              	.L7:
 141              	.LBB4:
 106:Core/Src/stm32f4xx_hal_msp.c **** 
 142              		.loc 1 106 0
 143 0038 0024     		movs	r4, #0
 144              	.LVL6:
 145 003a 0194     		str	r4, [sp, #4]
 146 003c 1D4B     		ldr	r3, .L11+4
 147 003e 5A6C     		ldr	r2, [r3, #68]
 148 0040 42F40062 		orr	r2, r2, #2048
 149 0044 5A64     		str	r2, [r3, #68]
 150 0046 5A6C     		ldr	r2, [r3, #68]
 151 0048 02F40062 		and	r2, r2, #2048
ARM GAS  C:\Users\Cihat\AppData\Local\Temp\ccDoy5ep.s 			page 6


 152 004c 0192     		str	r2, [sp, #4]
 153 004e 019A     		ldr	r2, [sp, #4]
 154              	.LBE4:
 155              	.LBB5:
 108:Core/Src/stm32f4xx_hal_msp.c ****     __HAL_RCC_GPIOD_CLK_ENABLE();
 156              		.loc 1 108 0
 157 0050 0294     		str	r4, [sp, #8]
 158 0052 1A6B     		ldr	r2, [r3, #48]
 159 0054 42F00402 		orr	r2, r2, #4
 160 0058 1A63     		str	r2, [r3, #48]
 161 005a 1A6B     		ldr	r2, [r3, #48]
 162 005c 02F00402 		and	r2, r2, #4
 163 0060 0292     		str	r2, [sp, #8]
 164 0062 029A     		ldr	r2, [sp, #8]
 165              	.LBE5:
 166              	.LBB6:
 109:Core/Src/stm32f4xx_hal_msp.c ****     /**SDIO GPIO Configuration
 167              		.loc 1 109 0
 168 0064 0394     		str	r4, [sp, #12]
 169 0066 1A6B     		ldr	r2, [r3, #48]
 170 0068 42F00802 		orr	r2, r2, #8
 171 006c 1A63     		str	r2, [r3, #48]
 172 006e 1B6B     		ldr	r3, [r3, #48]
 173 0070 03F00803 		and	r3, r3, #8
 174 0074 0393     		str	r3, [sp, #12]
 175 0076 039B     		ldr	r3, [sp, #12]
 176              	.LBE6:
 115:Core/Src/stm32f4xx_hal_msp.c ****     GPIO_InitStruct.Mode = GPIO_MODE_AF_PP;
 177              		.loc 1 115 0
 178 0078 4FF48853 		mov	r3, #4352
 179 007c 1393     		str	r3, [sp, #76]
 116:Core/Src/stm32f4xx_hal_msp.c ****     GPIO_InitStruct.Pull = GPIO_NOPULL;
 180              		.loc 1 116 0
 181 007e 0227     		movs	r7, #2
 182 0080 1497     		str	r7, [sp, #80]
 117:Core/Src/stm32f4xx_hal_msp.c ****     GPIO_InitStruct.Speed = GPIO_SPEED_FREQ_VERY_HIGH;
 183              		.loc 1 117 0
 184 0082 1594     		str	r4, [sp, #84]
 118:Core/Src/stm32f4xx_hal_msp.c ****     GPIO_InitStruct.Alternate = GPIO_AF12_SDIO;
 185              		.loc 1 118 0
 186 0084 0326     		movs	r6, #3
 187 0086 1696     		str	r6, [sp, #88]
 119:Core/Src/stm32f4xx_hal_msp.c ****     HAL_GPIO_Init(GPIOC, &GPIO_InitStruct);
 188              		.loc 1 119 0
 189 0088 0C25     		movs	r5, #12
 190 008a 1795     		str	r5, [sp, #92]
 120:Core/Src/stm32f4xx_hal_msp.c **** 
 191              		.loc 1 120 0
 192 008c 13A9     		add	r1, sp, #76
 193 008e 0A48     		ldr	r0, .L11+8
 194 0090 FFF7FEFF 		bl	HAL_GPIO_Init
 195              	.LVL7:
 122:Core/Src/stm32f4xx_hal_msp.c ****     GPIO_InitStruct.Mode = GPIO_MODE_AF_PP;
 196              		.loc 1 122 0
 197 0094 0423     		movs	r3, #4
 198 0096 1393     		str	r3, [sp, #76]
 123:Core/Src/stm32f4xx_hal_msp.c ****     GPIO_InitStruct.Pull = GPIO_NOPULL;
ARM GAS  C:\Users\Cihat\AppData\Local\Temp\ccDoy5ep.s 			page 7


 199              		.loc 1 123 0
 200 0098 1497     		str	r7, [sp, #80]
 124:Core/Src/stm32f4xx_hal_msp.c ****     GPIO_InitStruct.Speed = GPIO_SPEED_FREQ_VERY_HIGH;
 201              		.loc 1 124 0
 202 009a 1594     		str	r4, [sp, #84]
 125:Core/Src/stm32f4xx_hal_msp.c ****     GPIO_InitStruct.Alternate = GPIO_AF12_SDIO;
 203              		.loc 1 125 0
 204 009c 1696     		str	r6, [sp, #88]
 126:Core/Src/stm32f4xx_hal_msp.c ****     HAL_GPIO_Init(GPIOD, &GPIO_InitStruct);
 205              		.loc 1 126 0
 206 009e 1795     		str	r5, [sp, #92]
 127:Core/Src/stm32f4xx_hal_msp.c **** 
 207              		.loc 1 127 0
 208 00a0 13A9     		add	r1, sp, #76
 209 00a2 0648     		ldr	r0, .L11+12
 210 00a4 FFF7FEFF 		bl	HAL_GPIO_Init
 211              	.LVL8:
 212              		.loc 1 134 0
 213 00a8 BBE7     		b	.L5
 214              	.LVL9:
 215              	.L10:
 102:Core/Src/stm32f4xx_hal_msp.c ****     }
 216              		.loc 1 102 0
 217 00aa FFF7FEFF 		bl	Error_Handler
 218              	.LVL10:
 219 00ae C3E7     		b	.L7
 220              	.L12:
 221              		.align	2
 222              	.L11:
 223 00b0 002C0140 		.word	1073818624
 224 00b4 00380240 		.word	1073887232
 225 00b8 00080240 		.word	1073874944
 226 00bc 000C0240 		.word	1073875968
 227              		.cfi_endproc
 228              	.LFE131:
 230              		.section	.text.HAL_SD_MspDeInit,"ax",%progbits
 231              		.align	1
 232              		.global	HAL_SD_MspDeInit
 233              		.syntax unified
 234              		.thumb
 235              		.thumb_func
 236              		.fpu fpv4-sp-d16
 238              	HAL_SD_MspDeInit:
 239              	.LFB132:
 135:Core/Src/stm32f4xx_hal_msp.c **** 
 136:Core/Src/stm32f4xx_hal_msp.c **** /**
 137:Core/Src/stm32f4xx_hal_msp.c **** * @brief SD MSP De-Initialization
 138:Core/Src/stm32f4xx_hal_msp.c **** * This function freeze the hardware resources used in this example
 139:Core/Src/stm32f4xx_hal_msp.c **** * @param hsd: SD handle pointer
 140:Core/Src/stm32f4xx_hal_msp.c **** * @retval None
 141:Core/Src/stm32f4xx_hal_msp.c **** */
 142:Core/Src/stm32f4xx_hal_msp.c **** void HAL_SD_MspDeInit(SD_HandleTypeDef* hsd)
 143:Core/Src/stm32f4xx_hal_msp.c **** {
 240              		.loc 1 143 0
 241              		.cfi_startproc
 242              		@ args = 0, pretend = 0, frame = 0
 243              		@ frame_needed = 0, uses_anonymous_args = 0
ARM GAS  C:\Users\Cihat\AppData\Local\Temp\ccDoy5ep.s 			page 8


 244              	.LVL11:
 245 0000 08B5     		push	{r3, lr}
 246              	.LCFI6:
 247              		.cfi_def_cfa_offset 8
 248              		.cfi_offset 3, -8
 249              		.cfi_offset 14, -4
 144:Core/Src/stm32f4xx_hal_msp.c ****   if(hsd->Instance==SDIO)
 250              		.loc 1 144 0
 251 0002 0268     		ldr	r2, [r0]
 252 0004 094B     		ldr	r3, .L17
 253 0006 9A42     		cmp	r2, r3
 254 0008 00D0     		beq	.L16
 255              	.LVL12:
 256              	.L13:
 145:Core/Src/stm32f4xx_hal_msp.c ****   {
 146:Core/Src/stm32f4xx_hal_msp.c ****   /* USER CODE BEGIN SDIO_MspDeInit 0 */
 147:Core/Src/stm32f4xx_hal_msp.c **** 
 148:Core/Src/stm32f4xx_hal_msp.c ****   /* USER CODE END SDIO_MspDeInit 0 */
 149:Core/Src/stm32f4xx_hal_msp.c ****     /* Peripheral clock disable */
 150:Core/Src/stm32f4xx_hal_msp.c ****     __HAL_RCC_SDIO_CLK_DISABLE();
 151:Core/Src/stm32f4xx_hal_msp.c **** 
 152:Core/Src/stm32f4xx_hal_msp.c ****     /**SDIO GPIO Configuration
 153:Core/Src/stm32f4xx_hal_msp.c ****     PC12     ------> SDIO_CK
 154:Core/Src/stm32f4xx_hal_msp.c ****     PD2     ------> SDIO_CMD
 155:Core/Src/stm32f4xx_hal_msp.c ****     PC8     ------> SDIO_D0
 156:Core/Src/stm32f4xx_hal_msp.c ****     */
 157:Core/Src/stm32f4xx_hal_msp.c ****     HAL_GPIO_DeInit(GPIOC, GPIO_PIN_12|GPIO_PIN_8);
 158:Core/Src/stm32f4xx_hal_msp.c **** 
 159:Core/Src/stm32f4xx_hal_msp.c ****     HAL_GPIO_DeInit(GPIOD, GPIO_PIN_2);
 160:Core/Src/stm32f4xx_hal_msp.c **** 
 161:Core/Src/stm32f4xx_hal_msp.c ****   /* USER CODE BEGIN SDIO_MspDeInit 1 */
 162:Core/Src/stm32f4xx_hal_msp.c **** 
 163:Core/Src/stm32f4xx_hal_msp.c ****   /* USER CODE END SDIO_MspDeInit 1 */
 164:Core/Src/stm32f4xx_hal_msp.c ****   }
 165:Core/Src/stm32f4xx_hal_msp.c **** 
 166:Core/Src/stm32f4xx_hal_msp.c **** }
 257              		.loc 1 166 0
 258 000a 08BD     		pop	{r3, pc}
 259              	.LVL13:
 260              	.L16:
 150:Core/Src/stm32f4xx_hal_msp.c **** 
 261              		.loc 1 150 0
 262 000c 084A     		ldr	r2, .L17+4
 263 000e 536C     		ldr	r3, [r2, #68]
 264 0010 23F40063 		bic	r3, r3, #2048
 265 0014 5364     		str	r3, [r2, #68]
 157:Core/Src/stm32f4xx_hal_msp.c **** 
 266              		.loc 1 157 0
 267 0016 4FF48851 		mov	r1, #4352
 268 001a 0648     		ldr	r0, .L17+8
 269              	.LVL14:
 270 001c FFF7FEFF 		bl	HAL_GPIO_DeInit
 271              	.LVL15:
 159:Core/Src/stm32f4xx_hal_msp.c **** 
 272              		.loc 1 159 0
 273 0020 0421     		movs	r1, #4
 274 0022 0548     		ldr	r0, .L17+12
ARM GAS  C:\Users\Cihat\AppData\Local\Temp\ccDoy5ep.s 			page 9


 275 0024 FFF7FEFF 		bl	HAL_GPIO_DeInit
 276              	.LVL16:
 277              		.loc 1 166 0
 278 0028 EFE7     		b	.L13
 279              	.L18:
 280 002a 00BF     		.align	2
 281              	.L17:
 282 002c 002C0140 		.word	1073818624
 283 0030 00380240 		.word	1073887232
 284 0034 00080240 		.word	1073874944
 285 0038 000C0240 		.word	1073875968
 286              		.cfi_endproc
 287              	.LFE132:
 289              		.text
 290              	.Letext0:
 291              		.file 2 "c:\\touchgfx\\4.17.0\\env\\mingw\\msys\\1.0\\gnu-arm-gcc\\arm-none-eabi\\include\\machine
 292              		.file 3 "c:\\touchgfx\\4.17.0\\env\\mingw\\msys\\1.0\\gnu-arm-gcc\\arm-none-eabi\\include\\sys\\_s
 293              		.file 4 "Drivers/CMSIS/Include/core_cm4.h"
 294              		.file 5 "Drivers/CMSIS/Device/ST/STM32F4xx/Include/system_stm32f4xx.h"
 295              		.file 6 "Drivers/CMSIS/Device/ST/STM32F4xx/Include/stm32f469xx.h"
 296              		.file 7 "Drivers/STM32F4xx_HAL_Driver/Inc/stm32f4xx_hal_def.h"
 297              		.file 8 "Drivers/STM32F4xx_HAL_Driver/Inc/stm32f4xx_hal_rcc_ex.h"
 298              		.file 9 "Drivers/STM32F4xx_HAL_Driver/Inc/stm32f4xx_hal_gpio.h"
 299              		.file 10 "Drivers/STM32F4xx_HAL_Driver/Inc/stm32f4xx_hal_dma.h"
 300              		.file 11 "Drivers/STM32F4xx_HAL_Driver/Inc/stm32f4xx_ll_sdmmc.h"
 301              		.file 12 "Drivers/STM32F4xx_HAL_Driver/Inc/stm32f4xx_hal_sd.h"
 302              		.file 13 "Drivers/STM32F4xx_HAL_Driver/Inc/stm32f4xx_hal.h"
 303              		.file 14 "Core/Inc/main.h"
 304              		.file 15 "<built-in>"
ARM GAS  C:\Users\Cihat\AppData\Local\Temp\ccDoy5ep.s 			page 10

