ARM GAS  C:\Users\Cihat\AppData\Local\Temp\ccTPXPIa.s 			page 1


   1              		.cpu cortex-m4
   2              		.eabi_attribute 27, 1
   3              		.eabi_attribute 28, 1
   4              		.eabi_attribute 20, 1
   5              		.eabi_attribute 21, 1
   6              		.eabi_attribute 23, 3
   7              		.eabi_attribute 24, 1
   8              		.eabi_attribute 25, 1
   9              		.eabi_attribute 26, 1
  10              		.eabi_attribute 30, 1
  11              		.eabi_attribute 34, 1
  12              		.eabi_attribute 18, 4
  13              		.file	"stm32f4xx_ll_sdmmc.c"
  14              		.text
  15              	.Ltext0:
  16              		.cfi_sections	.debug_frame
  17              		.section	.text.SDMMC_GetCmdError,"ax",%progbits
  18              		.align	1
  19              		.syntax unified
  20              		.thumb
  21              		.thumb_func
  22              		.fpu fpv4-sp-d16
  24              	SDMMC_GetCmdError:
  25              	.LFB168:
  26              		.file 1 "Drivers/STM32F4xx_HAL_Driver/Src/stm32f4xx_ll_sdmmc.c"
   1:Drivers/STM32F4xx_HAL_Driver/Src/stm32f4xx_ll_sdmmc.c **** /**
   2:Drivers/STM32F4xx_HAL_Driver/Src/stm32f4xx_ll_sdmmc.c ****   ******************************************************************************
   3:Drivers/STM32F4xx_HAL_Driver/Src/stm32f4xx_ll_sdmmc.c ****   * @file    stm32f4xx_ll_sdmmc.c
   4:Drivers/STM32F4xx_HAL_Driver/Src/stm32f4xx_ll_sdmmc.c ****   * @author  MCD Application Team
   5:Drivers/STM32F4xx_HAL_Driver/Src/stm32f4xx_ll_sdmmc.c ****   * @brief   SDMMC Low Layer HAL module driver.
   6:Drivers/STM32F4xx_HAL_Driver/Src/stm32f4xx_ll_sdmmc.c ****   *    
   7:Drivers/STM32F4xx_HAL_Driver/Src/stm32f4xx_ll_sdmmc.c ****   *          This file provides firmware functions to manage the following 
   8:Drivers/STM32F4xx_HAL_Driver/Src/stm32f4xx_ll_sdmmc.c ****   *          functionalities of the SDMMC peripheral:
   9:Drivers/STM32F4xx_HAL_Driver/Src/stm32f4xx_ll_sdmmc.c ****   *           + Initialization/de-initialization functions
  10:Drivers/STM32F4xx_HAL_Driver/Src/stm32f4xx_ll_sdmmc.c ****   *           + I/O operation functions
  11:Drivers/STM32F4xx_HAL_Driver/Src/stm32f4xx_ll_sdmmc.c ****   *           + Peripheral Control functions 
  12:Drivers/STM32F4xx_HAL_Driver/Src/stm32f4xx_ll_sdmmc.c ****   *           + Peripheral State functions
  13:Drivers/STM32F4xx_HAL_Driver/Src/stm32f4xx_ll_sdmmc.c ****   *         
  14:Drivers/STM32F4xx_HAL_Driver/Src/stm32f4xx_ll_sdmmc.c ****   @verbatim
  15:Drivers/STM32F4xx_HAL_Driver/Src/stm32f4xx_ll_sdmmc.c ****   ==============================================================================
  16:Drivers/STM32F4xx_HAL_Driver/Src/stm32f4xx_ll_sdmmc.c ****                        ##### SDMMC peripheral features #####
  17:Drivers/STM32F4xx_HAL_Driver/Src/stm32f4xx_ll_sdmmc.c ****   ==============================================================================        
  18:Drivers/STM32F4xx_HAL_Driver/Src/stm32f4xx_ll_sdmmc.c ****     [..] The SD/SDMMC MMC card host interface (SDMMC) provides an interface between the AHB
  19:Drivers/STM32F4xx_HAL_Driver/Src/stm32f4xx_ll_sdmmc.c ****          peripheral bus and MultiMedia cards (MMCs), SD memory cards, SDMMC cards and CE-ATA
  20:Drivers/STM32F4xx_HAL_Driver/Src/stm32f4xx_ll_sdmmc.c ****          devices.
  21:Drivers/STM32F4xx_HAL_Driver/Src/stm32f4xx_ll_sdmmc.c ****     
  22:Drivers/STM32F4xx_HAL_Driver/Src/stm32f4xx_ll_sdmmc.c ****     [..] The SDMMC features include the following:
  23:Drivers/STM32F4xx_HAL_Driver/Src/stm32f4xx_ll_sdmmc.c ****          (+) Full compliance with MultiMedia Card System Specification Version 4.2. Card support
  24:Drivers/STM32F4xx_HAL_Driver/Src/stm32f4xx_ll_sdmmc.c ****              for three different databus modes: 1-bit (default), 4-bit and 8-bit
  25:Drivers/STM32F4xx_HAL_Driver/Src/stm32f4xx_ll_sdmmc.c ****          (+) Full compatibility with previous versions of MultiMedia Cards (forward compatibility)
  26:Drivers/STM32F4xx_HAL_Driver/Src/stm32f4xx_ll_sdmmc.c ****          (+) Full compliance with SD Memory Card Specifications Version 2.0
  27:Drivers/STM32F4xx_HAL_Driver/Src/stm32f4xx_ll_sdmmc.c ****          (+) Full compliance with SD I/O Card Specification Version 2.0: card support for two
  28:Drivers/STM32F4xx_HAL_Driver/Src/stm32f4xx_ll_sdmmc.c ****              different data bus modes: 1-bit (default) and 4-bit
  29:Drivers/STM32F4xx_HAL_Driver/Src/stm32f4xx_ll_sdmmc.c ****          (+) Full support of the CE-ATA features (full compliance with CE-ATA digital protocol
  30:Drivers/STM32F4xx_HAL_Driver/Src/stm32f4xx_ll_sdmmc.c ****              Rev1.1)
  31:Drivers/STM32F4xx_HAL_Driver/Src/stm32f4xx_ll_sdmmc.c ****          (+) Data transfer up to 48 MHz for the 8 bit mode
  32:Drivers/STM32F4xx_HAL_Driver/Src/stm32f4xx_ll_sdmmc.c ****          (+) Data and command output enable signals to control external bidirectional drivers
ARM GAS  C:\Users\Cihat\AppData\Local\Temp\ccTPXPIa.s 			page 2


  33:Drivers/STM32F4xx_HAL_Driver/Src/stm32f4xx_ll_sdmmc.c ****    
  34:Drivers/STM32F4xx_HAL_Driver/Src/stm32f4xx_ll_sdmmc.c ****                            ##### How to use this driver #####
  35:Drivers/STM32F4xx_HAL_Driver/Src/stm32f4xx_ll_sdmmc.c ****   ==============================================================================
  36:Drivers/STM32F4xx_HAL_Driver/Src/stm32f4xx_ll_sdmmc.c ****     [..]
  37:Drivers/STM32F4xx_HAL_Driver/Src/stm32f4xx_ll_sdmmc.c ****       This driver is a considered as a driver of service for external devices drivers 
  38:Drivers/STM32F4xx_HAL_Driver/Src/stm32f4xx_ll_sdmmc.c ****       that interfaces with the SDMMC peripheral.
  39:Drivers/STM32F4xx_HAL_Driver/Src/stm32f4xx_ll_sdmmc.c ****       According to the device used (SD card/ MMC card / SDMMC card ...), a set of APIs 
  40:Drivers/STM32F4xx_HAL_Driver/Src/stm32f4xx_ll_sdmmc.c ****       is used in the device's driver to perform SDMMC operations and functionalities.
  41:Drivers/STM32F4xx_HAL_Driver/Src/stm32f4xx_ll_sdmmc.c ****    
  42:Drivers/STM32F4xx_HAL_Driver/Src/stm32f4xx_ll_sdmmc.c ****       This driver is almost transparent for the final user, it is only used to implement other
  43:Drivers/STM32F4xx_HAL_Driver/Src/stm32f4xx_ll_sdmmc.c ****       functionalities of the external device.
  44:Drivers/STM32F4xx_HAL_Driver/Src/stm32f4xx_ll_sdmmc.c ****    
  45:Drivers/STM32F4xx_HAL_Driver/Src/stm32f4xx_ll_sdmmc.c ****     [..]
  46:Drivers/STM32F4xx_HAL_Driver/Src/stm32f4xx_ll_sdmmc.c ****       (+) The SDMMC clock (SDMMCCLK = 48 MHz) is coming from a specific output (MSI, PLLUSB1CLK,
  47:Drivers/STM32F4xx_HAL_Driver/Src/stm32f4xx_ll_sdmmc.c ****           PLLUSB2CLK). Before start working with SDMMC peripheral make sure that the
  48:Drivers/STM32F4xx_HAL_Driver/Src/stm32f4xx_ll_sdmmc.c ****           PLL is well configured.
  49:Drivers/STM32F4xx_HAL_Driver/Src/stm32f4xx_ll_sdmmc.c ****           The SDMMC peripheral uses two clock signals:
  50:Drivers/STM32F4xx_HAL_Driver/Src/stm32f4xx_ll_sdmmc.c ****           (++) SDMMC adapter clock (SDMMCCLK = 48 MHz)
  51:Drivers/STM32F4xx_HAL_Driver/Src/stm32f4xx_ll_sdmmc.c ****           (++) APB2 bus clock (PCLK2)
  52:Drivers/STM32F4xx_HAL_Driver/Src/stm32f4xx_ll_sdmmc.c ****        
  53:Drivers/STM32F4xx_HAL_Driver/Src/stm32f4xx_ll_sdmmc.c ****           -@@- PCLK2 and SDMMC_CK clock frequencies must respect the following condition:
  54:Drivers/STM32F4xx_HAL_Driver/Src/stm32f4xx_ll_sdmmc.c ****                Frequency(PCLK2) >= (3 / 8 x Frequency(SDMMC_CK))
  55:Drivers/STM32F4xx_HAL_Driver/Src/stm32f4xx_ll_sdmmc.c ****   
  56:Drivers/STM32F4xx_HAL_Driver/Src/stm32f4xx_ll_sdmmc.c ****       (+) Enable/Disable peripheral clock using RCC peripheral macros related to SDMMC
  57:Drivers/STM32F4xx_HAL_Driver/Src/stm32f4xx_ll_sdmmc.c ****           peripheral.
  58:Drivers/STM32F4xx_HAL_Driver/Src/stm32f4xx_ll_sdmmc.c **** 
  59:Drivers/STM32F4xx_HAL_Driver/Src/stm32f4xx_ll_sdmmc.c ****       (+) Enable the Power ON State using the SDIO_PowerState_ON() 
  60:Drivers/STM32F4xx_HAL_Driver/Src/stm32f4xx_ll_sdmmc.c ****           function and disable it using the function SDIO_PowerState_OFF().
  61:Drivers/STM32F4xx_HAL_Driver/Src/stm32f4xx_ll_sdmmc.c ****                 
  62:Drivers/STM32F4xx_HAL_Driver/Src/stm32f4xx_ll_sdmmc.c ****       (+) Enable/Disable the clock using the __SDIO_ENABLE()/__SDIO_DISABLE() macros.
  63:Drivers/STM32F4xx_HAL_Driver/Src/stm32f4xx_ll_sdmmc.c ****   
  64:Drivers/STM32F4xx_HAL_Driver/Src/stm32f4xx_ll_sdmmc.c ****       (+) Enable/Disable the peripheral interrupts using the macros __SDIO_ENABLE_IT() 
  65:Drivers/STM32F4xx_HAL_Driver/Src/stm32f4xx_ll_sdmmc.c ****           and __SDIO_DISABLE_IT() if you need to use interrupt mode. 
  66:Drivers/STM32F4xx_HAL_Driver/Src/stm32f4xx_ll_sdmmc.c ****   
  67:Drivers/STM32F4xx_HAL_Driver/Src/stm32f4xx_ll_sdmmc.c ****       (+) When using the DMA mode 
  68:Drivers/STM32F4xx_HAL_Driver/Src/stm32f4xx_ll_sdmmc.c ****           (++) Configure the DMA in the MSP layer of the external device
  69:Drivers/STM32F4xx_HAL_Driver/Src/stm32f4xx_ll_sdmmc.c ****           (++) Active the needed channel Request 
  70:Drivers/STM32F4xx_HAL_Driver/Src/stm32f4xx_ll_sdmmc.c ****           (++) Enable the DMA using __SDIO_DMA_ENABLE() macro or Disable it using the macro
  71:Drivers/STM32F4xx_HAL_Driver/Src/stm32f4xx_ll_sdmmc.c ****                __SDIO_DMA_DISABLE().
  72:Drivers/STM32F4xx_HAL_Driver/Src/stm32f4xx_ll_sdmmc.c ****   
  73:Drivers/STM32F4xx_HAL_Driver/Src/stm32f4xx_ll_sdmmc.c ****       (+) To control the CPSM (Command Path State Machine) and send 
  74:Drivers/STM32F4xx_HAL_Driver/Src/stm32f4xx_ll_sdmmc.c ****           commands to the card use the SDIO_SendCommand(), 
  75:Drivers/STM32F4xx_HAL_Driver/Src/stm32f4xx_ll_sdmmc.c ****           SDIO_GetCommandResponse() and SDIO_GetResponse() functions. First, user has
  76:Drivers/STM32F4xx_HAL_Driver/Src/stm32f4xx_ll_sdmmc.c ****           to fill the command structure (pointer to SDIO_CmdInitTypeDef) according 
  77:Drivers/STM32F4xx_HAL_Driver/Src/stm32f4xx_ll_sdmmc.c ****           to the selected command to be sent.
  78:Drivers/STM32F4xx_HAL_Driver/Src/stm32f4xx_ll_sdmmc.c ****           The parameters that should be filled are:
  79:Drivers/STM32F4xx_HAL_Driver/Src/stm32f4xx_ll_sdmmc.c ****            (++) Command Argument
  80:Drivers/STM32F4xx_HAL_Driver/Src/stm32f4xx_ll_sdmmc.c ****            (++) Command Index
  81:Drivers/STM32F4xx_HAL_Driver/Src/stm32f4xx_ll_sdmmc.c ****            (++) Command Response type
  82:Drivers/STM32F4xx_HAL_Driver/Src/stm32f4xx_ll_sdmmc.c ****            (++) Command Wait
  83:Drivers/STM32F4xx_HAL_Driver/Src/stm32f4xx_ll_sdmmc.c ****            (++) CPSM Status (Enable or Disable).
  84:Drivers/STM32F4xx_HAL_Driver/Src/stm32f4xx_ll_sdmmc.c ****   
  85:Drivers/STM32F4xx_HAL_Driver/Src/stm32f4xx_ll_sdmmc.c ****           -@@- To check if the command is well received, read the SDIO_CMDRESP
  86:Drivers/STM32F4xx_HAL_Driver/Src/stm32f4xx_ll_sdmmc.c ****               register using the SDIO_GetCommandResponse().
  87:Drivers/STM32F4xx_HAL_Driver/Src/stm32f4xx_ll_sdmmc.c ****               The SDMMC responses registers (SDIO_RESP1 to SDIO_RESP2), use the
  88:Drivers/STM32F4xx_HAL_Driver/Src/stm32f4xx_ll_sdmmc.c ****               SDIO_GetResponse() function.
  89:Drivers/STM32F4xx_HAL_Driver/Src/stm32f4xx_ll_sdmmc.c ****   
ARM GAS  C:\Users\Cihat\AppData\Local\Temp\ccTPXPIa.s 			page 3


  90:Drivers/STM32F4xx_HAL_Driver/Src/stm32f4xx_ll_sdmmc.c ****       (+) To control the DPSM (Data Path State Machine) and send/receive 
  91:Drivers/STM32F4xx_HAL_Driver/Src/stm32f4xx_ll_sdmmc.c ****            data to/from the card use the SDIO_DataConfig(), SDIO_GetDataCounter(), 
  92:Drivers/STM32F4xx_HAL_Driver/Src/stm32f4xx_ll_sdmmc.c ****           SDIO_ReadFIFO(), SDIO_WriteFIFO() and SDIO_GetFIFOCount() functions.
  93:Drivers/STM32F4xx_HAL_Driver/Src/stm32f4xx_ll_sdmmc.c ****   
  94:Drivers/STM32F4xx_HAL_Driver/Src/stm32f4xx_ll_sdmmc.c ****     *** Read Operations ***
  95:Drivers/STM32F4xx_HAL_Driver/Src/stm32f4xx_ll_sdmmc.c ****     =======================
  96:Drivers/STM32F4xx_HAL_Driver/Src/stm32f4xx_ll_sdmmc.c ****     [..]
  97:Drivers/STM32F4xx_HAL_Driver/Src/stm32f4xx_ll_sdmmc.c ****       (#) First, user has to fill the data structure (pointer to
  98:Drivers/STM32F4xx_HAL_Driver/Src/stm32f4xx_ll_sdmmc.c ****           SDIO_DataInitTypeDef) according to the selected data type to be received.
  99:Drivers/STM32F4xx_HAL_Driver/Src/stm32f4xx_ll_sdmmc.c ****           The parameters that should be filled are:
 100:Drivers/STM32F4xx_HAL_Driver/Src/stm32f4xx_ll_sdmmc.c ****            (++) Data TimeOut
 101:Drivers/STM32F4xx_HAL_Driver/Src/stm32f4xx_ll_sdmmc.c ****            (++) Data Length
 102:Drivers/STM32F4xx_HAL_Driver/Src/stm32f4xx_ll_sdmmc.c ****            (++) Data Block size
 103:Drivers/STM32F4xx_HAL_Driver/Src/stm32f4xx_ll_sdmmc.c ****            (++) Data Transfer direction: should be from card (To SDMMC)
 104:Drivers/STM32F4xx_HAL_Driver/Src/stm32f4xx_ll_sdmmc.c ****            (++) Data Transfer mode
 105:Drivers/STM32F4xx_HAL_Driver/Src/stm32f4xx_ll_sdmmc.c ****            (++) DPSM Status (Enable or Disable)
 106:Drivers/STM32F4xx_HAL_Driver/Src/stm32f4xx_ll_sdmmc.c ****                                      
 107:Drivers/STM32F4xx_HAL_Driver/Src/stm32f4xx_ll_sdmmc.c ****       (#) Configure the SDMMC resources to receive the data from the card
 108:Drivers/STM32F4xx_HAL_Driver/Src/stm32f4xx_ll_sdmmc.c ****           according to selected transfer mode (Refer to Step 8, 9 and 10).
 109:Drivers/STM32F4xx_HAL_Driver/Src/stm32f4xx_ll_sdmmc.c ****   
 110:Drivers/STM32F4xx_HAL_Driver/Src/stm32f4xx_ll_sdmmc.c ****       (#) Send the selected Read command (refer to step 11).
 111:Drivers/STM32F4xx_HAL_Driver/Src/stm32f4xx_ll_sdmmc.c ****                     
 112:Drivers/STM32F4xx_HAL_Driver/Src/stm32f4xx_ll_sdmmc.c ****       (#) Use the SDIO flags/interrupts to check the transfer status.
 113:Drivers/STM32F4xx_HAL_Driver/Src/stm32f4xx_ll_sdmmc.c ****   
 114:Drivers/STM32F4xx_HAL_Driver/Src/stm32f4xx_ll_sdmmc.c ****     *** Write Operations ***
 115:Drivers/STM32F4xx_HAL_Driver/Src/stm32f4xx_ll_sdmmc.c ****     ========================
 116:Drivers/STM32F4xx_HAL_Driver/Src/stm32f4xx_ll_sdmmc.c ****     [..]
 117:Drivers/STM32F4xx_HAL_Driver/Src/stm32f4xx_ll_sdmmc.c ****      (#) First, user has to fill the data structure (pointer to
 118:Drivers/STM32F4xx_HAL_Driver/Src/stm32f4xx_ll_sdmmc.c ****          SDIO_DataInitTypeDef) according to the selected data type to be received.
 119:Drivers/STM32F4xx_HAL_Driver/Src/stm32f4xx_ll_sdmmc.c ****          The parameters that should be filled are:
 120:Drivers/STM32F4xx_HAL_Driver/Src/stm32f4xx_ll_sdmmc.c ****           (++) Data TimeOut
 121:Drivers/STM32F4xx_HAL_Driver/Src/stm32f4xx_ll_sdmmc.c ****           (++) Data Length
 122:Drivers/STM32F4xx_HAL_Driver/Src/stm32f4xx_ll_sdmmc.c ****           (++) Data Block size
 123:Drivers/STM32F4xx_HAL_Driver/Src/stm32f4xx_ll_sdmmc.c ****           (++) Data Transfer direction:  should be to card (To CARD)
 124:Drivers/STM32F4xx_HAL_Driver/Src/stm32f4xx_ll_sdmmc.c ****           (++) Data Transfer mode
 125:Drivers/STM32F4xx_HAL_Driver/Src/stm32f4xx_ll_sdmmc.c ****           (++) DPSM Status (Enable or Disable)
 126:Drivers/STM32F4xx_HAL_Driver/Src/stm32f4xx_ll_sdmmc.c ****   
 127:Drivers/STM32F4xx_HAL_Driver/Src/stm32f4xx_ll_sdmmc.c ****      (#) Configure the SDMMC resources to send the data to the card according to 
 128:Drivers/STM32F4xx_HAL_Driver/Src/stm32f4xx_ll_sdmmc.c ****          selected transfer mode.
 129:Drivers/STM32F4xx_HAL_Driver/Src/stm32f4xx_ll_sdmmc.c ****                      
 130:Drivers/STM32F4xx_HAL_Driver/Src/stm32f4xx_ll_sdmmc.c ****      (#) Send the selected Write command.
 131:Drivers/STM32F4xx_HAL_Driver/Src/stm32f4xx_ll_sdmmc.c ****                     
 132:Drivers/STM32F4xx_HAL_Driver/Src/stm32f4xx_ll_sdmmc.c ****      (#) Use the SDIO flags/interrupts to check the transfer status.
 133:Drivers/STM32F4xx_HAL_Driver/Src/stm32f4xx_ll_sdmmc.c ****        
 134:Drivers/STM32F4xx_HAL_Driver/Src/stm32f4xx_ll_sdmmc.c ****     *** Command management operations ***
 135:Drivers/STM32F4xx_HAL_Driver/Src/stm32f4xx_ll_sdmmc.c ****     =====================================
 136:Drivers/STM32F4xx_HAL_Driver/Src/stm32f4xx_ll_sdmmc.c ****     [..]
 137:Drivers/STM32F4xx_HAL_Driver/Src/stm32f4xx_ll_sdmmc.c ****      (#) The commands used for Read/Write/Erase operations are managed in 
 138:Drivers/STM32F4xx_HAL_Driver/Src/stm32f4xx_ll_sdmmc.c ****          separate functions. 
 139:Drivers/STM32F4xx_HAL_Driver/Src/stm32f4xx_ll_sdmmc.c ****          Each function allows to send the needed command with the related argument,
 140:Drivers/STM32F4xx_HAL_Driver/Src/stm32f4xx_ll_sdmmc.c ****          then check the response.
 141:Drivers/STM32F4xx_HAL_Driver/Src/stm32f4xx_ll_sdmmc.c ****          By the same approach, you could implement a command and check the response.
 142:Drivers/STM32F4xx_HAL_Driver/Src/stm32f4xx_ll_sdmmc.c ****   
 143:Drivers/STM32F4xx_HAL_Driver/Src/stm32f4xx_ll_sdmmc.c ****   @endverbatim
 144:Drivers/STM32F4xx_HAL_Driver/Src/stm32f4xx_ll_sdmmc.c ****   ******************************************************************************
 145:Drivers/STM32F4xx_HAL_Driver/Src/stm32f4xx_ll_sdmmc.c ****   * @attention
 146:Drivers/STM32F4xx_HAL_Driver/Src/stm32f4xx_ll_sdmmc.c ****   *
ARM GAS  C:\Users\Cihat\AppData\Local\Temp\ccTPXPIa.s 			page 4


 147:Drivers/STM32F4xx_HAL_Driver/Src/stm32f4xx_ll_sdmmc.c ****   * <h2><center>&copy; Copyright (c) 2017 STMicroelectronics.
 148:Drivers/STM32F4xx_HAL_Driver/Src/stm32f4xx_ll_sdmmc.c ****   * All rights reserved.</center></h2>
 149:Drivers/STM32F4xx_HAL_Driver/Src/stm32f4xx_ll_sdmmc.c ****   *
 150:Drivers/STM32F4xx_HAL_Driver/Src/stm32f4xx_ll_sdmmc.c ****   * This software component is licensed by ST under BSD 3-Clause license,
 151:Drivers/STM32F4xx_HAL_Driver/Src/stm32f4xx_ll_sdmmc.c ****   * the "License"; You may not use this file except in compliance with the
 152:Drivers/STM32F4xx_HAL_Driver/Src/stm32f4xx_ll_sdmmc.c ****   * License. You may obtain a copy of the License at:
 153:Drivers/STM32F4xx_HAL_Driver/Src/stm32f4xx_ll_sdmmc.c ****   *                       opensource.org/licenses/BSD-3-Clause
 154:Drivers/STM32F4xx_HAL_Driver/Src/stm32f4xx_ll_sdmmc.c ****   *
 155:Drivers/STM32F4xx_HAL_Driver/Src/stm32f4xx_ll_sdmmc.c ****   ******************************************************************************
 156:Drivers/STM32F4xx_HAL_Driver/Src/stm32f4xx_ll_sdmmc.c ****   */ 
 157:Drivers/STM32F4xx_HAL_Driver/Src/stm32f4xx_ll_sdmmc.c **** 
 158:Drivers/STM32F4xx_HAL_Driver/Src/stm32f4xx_ll_sdmmc.c **** /* Includes ------------------------------------------------------------------*/
 159:Drivers/STM32F4xx_HAL_Driver/Src/stm32f4xx_ll_sdmmc.c **** #include "stm32f4xx_hal.h"
 160:Drivers/STM32F4xx_HAL_Driver/Src/stm32f4xx_ll_sdmmc.c **** 
 161:Drivers/STM32F4xx_HAL_Driver/Src/stm32f4xx_ll_sdmmc.c **** #if defined(SDIO)
 162:Drivers/STM32F4xx_HAL_Driver/Src/stm32f4xx_ll_sdmmc.c **** 
 163:Drivers/STM32F4xx_HAL_Driver/Src/stm32f4xx_ll_sdmmc.c **** /** @addtogroup STM32F4xx_HAL_Driver
 164:Drivers/STM32F4xx_HAL_Driver/Src/stm32f4xx_ll_sdmmc.c ****   * @{
 165:Drivers/STM32F4xx_HAL_Driver/Src/stm32f4xx_ll_sdmmc.c ****   */
 166:Drivers/STM32F4xx_HAL_Driver/Src/stm32f4xx_ll_sdmmc.c **** 
 167:Drivers/STM32F4xx_HAL_Driver/Src/stm32f4xx_ll_sdmmc.c **** /** @defgroup SDMMC_LL SDMMC Low Layer
 168:Drivers/STM32F4xx_HAL_Driver/Src/stm32f4xx_ll_sdmmc.c ****   * @brief Low layer module for SD
 169:Drivers/STM32F4xx_HAL_Driver/Src/stm32f4xx_ll_sdmmc.c ****   * @{
 170:Drivers/STM32F4xx_HAL_Driver/Src/stm32f4xx_ll_sdmmc.c ****   */
 171:Drivers/STM32F4xx_HAL_Driver/Src/stm32f4xx_ll_sdmmc.c **** 
 172:Drivers/STM32F4xx_HAL_Driver/Src/stm32f4xx_ll_sdmmc.c **** #if defined(HAL_SD_MODULE_ENABLED) || defined(HAL_MMC_MODULE_ENABLED)
 173:Drivers/STM32F4xx_HAL_Driver/Src/stm32f4xx_ll_sdmmc.c **** 
 174:Drivers/STM32F4xx_HAL_Driver/Src/stm32f4xx_ll_sdmmc.c **** /* Private typedef -----------------------------------------------------------*/
 175:Drivers/STM32F4xx_HAL_Driver/Src/stm32f4xx_ll_sdmmc.c **** /* Private define ------------------------------------------------------------*/
 176:Drivers/STM32F4xx_HAL_Driver/Src/stm32f4xx_ll_sdmmc.c **** /* Private macro -------------------------------------------------------------*/
 177:Drivers/STM32F4xx_HAL_Driver/Src/stm32f4xx_ll_sdmmc.c **** /* Private variables ---------------------------------------------------------*/
 178:Drivers/STM32F4xx_HAL_Driver/Src/stm32f4xx_ll_sdmmc.c **** /* Private function prototypes -----------------------------------------------*/
 179:Drivers/STM32F4xx_HAL_Driver/Src/stm32f4xx_ll_sdmmc.c **** static uint32_t SDMMC_GetCmdError(SDIO_TypeDef *SDIOx);
 180:Drivers/STM32F4xx_HAL_Driver/Src/stm32f4xx_ll_sdmmc.c **** static uint32_t SDMMC_GetCmdResp1(SDIO_TypeDef *SDIOx, uint8_t SD_CMD, uint32_t Timeout);
 181:Drivers/STM32F4xx_HAL_Driver/Src/stm32f4xx_ll_sdmmc.c **** static uint32_t SDMMC_GetCmdResp2(SDIO_TypeDef *SDIOx);
 182:Drivers/STM32F4xx_HAL_Driver/Src/stm32f4xx_ll_sdmmc.c **** static uint32_t SDMMC_GetCmdResp3(SDIO_TypeDef *SDIOx);
 183:Drivers/STM32F4xx_HAL_Driver/Src/stm32f4xx_ll_sdmmc.c **** static uint32_t SDMMC_GetCmdResp7(SDIO_TypeDef *SDIOx);
 184:Drivers/STM32F4xx_HAL_Driver/Src/stm32f4xx_ll_sdmmc.c **** static uint32_t SDMMC_GetCmdResp6(SDIO_TypeDef *SDIOx, uint8_t SD_CMD, uint16_t *pRCA);
 185:Drivers/STM32F4xx_HAL_Driver/Src/stm32f4xx_ll_sdmmc.c **** 
 186:Drivers/STM32F4xx_HAL_Driver/Src/stm32f4xx_ll_sdmmc.c **** /* Exported functions --------------------------------------------------------*/
 187:Drivers/STM32F4xx_HAL_Driver/Src/stm32f4xx_ll_sdmmc.c **** 
 188:Drivers/STM32F4xx_HAL_Driver/Src/stm32f4xx_ll_sdmmc.c **** /** @defgroup SDMMC_LL_Exported_Functions SDMMC Low Layer Exported Functions
 189:Drivers/STM32F4xx_HAL_Driver/Src/stm32f4xx_ll_sdmmc.c ****   * @{
 190:Drivers/STM32F4xx_HAL_Driver/Src/stm32f4xx_ll_sdmmc.c ****   */
 191:Drivers/STM32F4xx_HAL_Driver/Src/stm32f4xx_ll_sdmmc.c **** 
 192:Drivers/STM32F4xx_HAL_Driver/Src/stm32f4xx_ll_sdmmc.c **** /** @defgroup HAL_SDMMC_LL_Group1 Initialization de-initialization functions 
 193:Drivers/STM32F4xx_HAL_Driver/Src/stm32f4xx_ll_sdmmc.c ****  *  @brief    Initialization and Configuration functions 
 194:Drivers/STM32F4xx_HAL_Driver/Src/stm32f4xx_ll_sdmmc.c ****  *
 195:Drivers/STM32F4xx_HAL_Driver/Src/stm32f4xx_ll_sdmmc.c **** @verbatim    
 196:Drivers/STM32F4xx_HAL_Driver/Src/stm32f4xx_ll_sdmmc.c ****  ===============================================================================
 197:Drivers/STM32F4xx_HAL_Driver/Src/stm32f4xx_ll_sdmmc.c ****               ##### Initialization/de-initialization functions #####
 198:Drivers/STM32F4xx_HAL_Driver/Src/stm32f4xx_ll_sdmmc.c ****  ===============================================================================
 199:Drivers/STM32F4xx_HAL_Driver/Src/stm32f4xx_ll_sdmmc.c ****     [..]  This section provides functions allowing to:
 200:Drivers/STM32F4xx_HAL_Driver/Src/stm32f4xx_ll_sdmmc.c ****  
 201:Drivers/STM32F4xx_HAL_Driver/Src/stm32f4xx_ll_sdmmc.c **** @endverbatim
 202:Drivers/STM32F4xx_HAL_Driver/Src/stm32f4xx_ll_sdmmc.c ****   * @{
 203:Drivers/STM32F4xx_HAL_Driver/Src/stm32f4xx_ll_sdmmc.c ****   */
ARM GAS  C:\Users\Cihat\AppData\Local\Temp\ccTPXPIa.s 			page 5


 204:Drivers/STM32F4xx_HAL_Driver/Src/stm32f4xx_ll_sdmmc.c **** 
 205:Drivers/STM32F4xx_HAL_Driver/Src/stm32f4xx_ll_sdmmc.c **** /**
 206:Drivers/STM32F4xx_HAL_Driver/Src/stm32f4xx_ll_sdmmc.c ****   * @brief  Initializes the SDMMC according to the specified
 207:Drivers/STM32F4xx_HAL_Driver/Src/stm32f4xx_ll_sdmmc.c ****   *         parameters in the SDMMC_InitTypeDef and create the associated handle.
 208:Drivers/STM32F4xx_HAL_Driver/Src/stm32f4xx_ll_sdmmc.c ****   * @param  SDIOx: Pointer to SDMMC register base
 209:Drivers/STM32F4xx_HAL_Driver/Src/stm32f4xx_ll_sdmmc.c ****   * @param  Init: SDMMC initialization structure   
 210:Drivers/STM32F4xx_HAL_Driver/Src/stm32f4xx_ll_sdmmc.c ****   * @retval HAL status
 211:Drivers/STM32F4xx_HAL_Driver/Src/stm32f4xx_ll_sdmmc.c ****   */
 212:Drivers/STM32F4xx_HAL_Driver/Src/stm32f4xx_ll_sdmmc.c **** HAL_StatusTypeDef SDIO_Init(SDIO_TypeDef *SDIOx, SDIO_InitTypeDef Init)
 213:Drivers/STM32F4xx_HAL_Driver/Src/stm32f4xx_ll_sdmmc.c **** {
 214:Drivers/STM32F4xx_HAL_Driver/Src/stm32f4xx_ll_sdmmc.c ****   uint32_t tmpreg = 0;
 215:Drivers/STM32F4xx_HAL_Driver/Src/stm32f4xx_ll_sdmmc.c **** 
 216:Drivers/STM32F4xx_HAL_Driver/Src/stm32f4xx_ll_sdmmc.c ****   /* Check the parameters */
 217:Drivers/STM32F4xx_HAL_Driver/Src/stm32f4xx_ll_sdmmc.c ****   assert_param(IS_SDIO_ALL_INSTANCE(SDIOx));
 218:Drivers/STM32F4xx_HAL_Driver/Src/stm32f4xx_ll_sdmmc.c ****   assert_param(IS_SDIO_CLOCK_EDGE(Init.ClockEdge)); 
 219:Drivers/STM32F4xx_HAL_Driver/Src/stm32f4xx_ll_sdmmc.c ****   assert_param(IS_SDIO_CLOCK_BYPASS(Init.ClockBypass));
 220:Drivers/STM32F4xx_HAL_Driver/Src/stm32f4xx_ll_sdmmc.c ****   assert_param(IS_SDIO_CLOCK_POWER_SAVE(Init.ClockPowerSave));
 221:Drivers/STM32F4xx_HAL_Driver/Src/stm32f4xx_ll_sdmmc.c ****   assert_param(IS_SDIO_BUS_WIDE(Init.BusWide));
 222:Drivers/STM32F4xx_HAL_Driver/Src/stm32f4xx_ll_sdmmc.c ****   assert_param(IS_SDIO_HARDWARE_FLOW_CONTROL(Init.HardwareFlowControl));
 223:Drivers/STM32F4xx_HAL_Driver/Src/stm32f4xx_ll_sdmmc.c ****   assert_param(IS_SDIO_CLKDIV(Init.ClockDiv));
 224:Drivers/STM32F4xx_HAL_Driver/Src/stm32f4xx_ll_sdmmc.c ****   
 225:Drivers/STM32F4xx_HAL_Driver/Src/stm32f4xx_ll_sdmmc.c ****   /* Set SDMMC configuration parameters */
 226:Drivers/STM32F4xx_HAL_Driver/Src/stm32f4xx_ll_sdmmc.c ****   tmpreg |= (Init.ClockEdge           |\
 227:Drivers/STM32F4xx_HAL_Driver/Src/stm32f4xx_ll_sdmmc.c ****              Init.ClockBypass         |\
 228:Drivers/STM32F4xx_HAL_Driver/Src/stm32f4xx_ll_sdmmc.c ****              Init.ClockPowerSave      |\
 229:Drivers/STM32F4xx_HAL_Driver/Src/stm32f4xx_ll_sdmmc.c ****              Init.BusWide             |\
 230:Drivers/STM32F4xx_HAL_Driver/Src/stm32f4xx_ll_sdmmc.c ****              Init.HardwareFlowControl |\
 231:Drivers/STM32F4xx_HAL_Driver/Src/stm32f4xx_ll_sdmmc.c ****              Init.ClockDiv
 232:Drivers/STM32F4xx_HAL_Driver/Src/stm32f4xx_ll_sdmmc.c ****              ); 
 233:Drivers/STM32F4xx_HAL_Driver/Src/stm32f4xx_ll_sdmmc.c ****   
 234:Drivers/STM32F4xx_HAL_Driver/Src/stm32f4xx_ll_sdmmc.c ****   /* Write to SDMMC CLKCR */
 235:Drivers/STM32F4xx_HAL_Driver/Src/stm32f4xx_ll_sdmmc.c ****   MODIFY_REG(SDIOx->CLKCR, CLKCR_CLEAR_MASK, tmpreg);  
 236:Drivers/STM32F4xx_HAL_Driver/Src/stm32f4xx_ll_sdmmc.c **** 
 237:Drivers/STM32F4xx_HAL_Driver/Src/stm32f4xx_ll_sdmmc.c ****   return HAL_OK;
 238:Drivers/STM32F4xx_HAL_Driver/Src/stm32f4xx_ll_sdmmc.c **** }
 239:Drivers/STM32F4xx_HAL_Driver/Src/stm32f4xx_ll_sdmmc.c **** 
 240:Drivers/STM32F4xx_HAL_Driver/Src/stm32f4xx_ll_sdmmc.c **** 
 241:Drivers/STM32F4xx_HAL_Driver/Src/stm32f4xx_ll_sdmmc.c **** /**
 242:Drivers/STM32F4xx_HAL_Driver/Src/stm32f4xx_ll_sdmmc.c ****   * @}
 243:Drivers/STM32F4xx_HAL_Driver/Src/stm32f4xx_ll_sdmmc.c ****   */
 244:Drivers/STM32F4xx_HAL_Driver/Src/stm32f4xx_ll_sdmmc.c **** 
 245:Drivers/STM32F4xx_HAL_Driver/Src/stm32f4xx_ll_sdmmc.c **** /** @defgroup HAL_SDMMC_LL_Group2 IO operation functions 
 246:Drivers/STM32F4xx_HAL_Driver/Src/stm32f4xx_ll_sdmmc.c ****  *  @brief   Data transfers functions 
 247:Drivers/STM32F4xx_HAL_Driver/Src/stm32f4xx_ll_sdmmc.c ****  *
 248:Drivers/STM32F4xx_HAL_Driver/Src/stm32f4xx_ll_sdmmc.c **** @verbatim   
 249:Drivers/STM32F4xx_HAL_Driver/Src/stm32f4xx_ll_sdmmc.c ****  ===============================================================================
 250:Drivers/STM32F4xx_HAL_Driver/Src/stm32f4xx_ll_sdmmc.c ****                       ##### I/O operation functions #####
 251:Drivers/STM32F4xx_HAL_Driver/Src/stm32f4xx_ll_sdmmc.c ****  ===============================================================================  
 252:Drivers/STM32F4xx_HAL_Driver/Src/stm32f4xx_ll_sdmmc.c ****     [..]
 253:Drivers/STM32F4xx_HAL_Driver/Src/stm32f4xx_ll_sdmmc.c ****     This subsection provides a set of functions allowing to manage the SDMMC data 
 254:Drivers/STM32F4xx_HAL_Driver/Src/stm32f4xx_ll_sdmmc.c ****     transfers.
 255:Drivers/STM32F4xx_HAL_Driver/Src/stm32f4xx_ll_sdmmc.c **** 
 256:Drivers/STM32F4xx_HAL_Driver/Src/stm32f4xx_ll_sdmmc.c **** @endverbatim
 257:Drivers/STM32F4xx_HAL_Driver/Src/stm32f4xx_ll_sdmmc.c ****   * @{
 258:Drivers/STM32F4xx_HAL_Driver/Src/stm32f4xx_ll_sdmmc.c ****   */
 259:Drivers/STM32F4xx_HAL_Driver/Src/stm32f4xx_ll_sdmmc.c **** 
 260:Drivers/STM32F4xx_HAL_Driver/Src/stm32f4xx_ll_sdmmc.c **** /**
ARM GAS  C:\Users\Cihat\AppData\Local\Temp\ccTPXPIa.s 			page 6


 261:Drivers/STM32F4xx_HAL_Driver/Src/stm32f4xx_ll_sdmmc.c ****   * @brief  Read data (word) from Rx FIFO in blocking mode (polling) 
 262:Drivers/STM32F4xx_HAL_Driver/Src/stm32f4xx_ll_sdmmc.c ****   * @param  SDIOx: Pointer to SDMMC register base
 263:Drivers/STM32F4xx_HAL_Driver/Src/stm32f4xx_ll_sdmmc.c ****   * @retval HAL status
 264:Drivers/STM32F4xx_HAL_Driver/Src/stm32f4xx_ll_sdmmc.c ****   */
 265:Drivers/STM32F4xx_HAL_Driver/Src/stm32f4xx_ll_sdmmc.c **** uint32_t SDIO_ReadFIFO(SDIO_TypeDef *SDIOx)
 266:Drivers/STM32F4xx_HAL_Driver/Src/stm32f4xx_ll_sdmmc.c **** {
 267:Drivers/STM32F4xx_HAL_Driver/Src/stm32f4xx_ll_sdmmc.c ****   /* Read data from Rx FIFO */ 
 268:Drivers/STM32F4xx_HAL_Driver/Src/stm32f4xx_ll_sdmmc.c ****   return (SDIOx->FIFO);
 269:Drivers/STM32F4xx_HAL_Driver/Src/stm32f4xx_ll_sdmmc.c **** }
 270:Drivers/STM32F4xx_HAL_Driver/Src/stm32f4xx_ll_sdmmc.c **** 
 271:Drivers/STM32F4xx_HAL_Driver/Src/stm32f4xx_ll_sdmmc.c **** /**
 272:Drivers/STM32F4xx_HAL_Driver/Src/stm32f4xx_ll_sdmmc.c ****   * @brief  Write data (word) to Tx FIFO in blocking mode (polling) 
 273:Drivers/STM32F4xx_HAL_Driver/Src/stm32f4xx_ll_sdmmc.c ****   * @param  SDIOx: Pointer to SDMMC register base
 274:Drivers/STM32F4xx_HAL_Driver/Src/stm32f4xx_ll_sdmmc.c ****   * @param  pWriteData: pointer to data to write
 275:Drivers/STM32F4xx_HAL_Driver/Src/stm32f4xx_ll_sdmmc.c ****   * @retval HAL status
 276:Drivers/STM32F4xx_HAL_Driver/Src/stm32f4xx_ll_sdmmc.c ****   */
 277:Drivers/STM32F4xx_HAL_Driver/Src/stm32f4xx_ll_sdmmc.c **** HAL_StatusTypeDef SDIO_WriteFIFO(SDIO_TypeDef *SDIOx, uint32_t *pWriteData)
 278:Drivers/STM32F4xx_HAL_Driver/Src/stm32f4xx_ll_sdmmc.c **** { 
 279:Drivers/STM32F4xx_HAL_Driver/Src/stm32f4xx_ll_sdmmc.c ****   /* Write data to FIFO */ 
 280:Drivers/STM32F4xx_HAL_Driver/Src/stm32f4xx_ll_sdmmc.c ****   SDIOx->FIFO = *pWriteData;
 281:Drivers/STM32F4xx_HAL_Driver/Src/stm32f4xx_ll_sdmmc.c **** 
 282:Drivers/STM32F4xx_HAL_Driver/Src/stm32f4xx_ll_sdmmc.c ****   return HAL_OK;
 283:Drivers/STM32F4xx_HAL_Driver/Src/stm32f4xx_ll_sdmmc.c **** }
 284:Drivers/STM32F4xx_HAL_Driver/Src/stm32f4xx_ll_sdmmc.c **** 
 285:Drivers/STM32F4xx_HAL_Driver/Src/stm32f4xx_ll_sdmmc.c **** /**
 286:Drivers/STM32F4xx_HAL_Driver/Src/stm32f4xx_ll_sdmmc.c ****   * @}
 287:Drivers/STM32F4xx_HAL_Driver/Src/stm32f4xx_ll_sdmmc.c ****   */
 288:Drivers/STM32F4xx_HAL_Driver/Src/stm32f4xx_ll_sdmmc.c **** 
 289:Drivers/STM32F4xx_HAL_Driver/Src/stm32f4xx_ll_sdmmc.c **** /** @defgroup HAL_SDMMC_LL_Group3 Peripheral Control functions 
 290:Drivers/STM32F4xx_HAL_Driver/Src/stm32f4xx_ll_sdmmc.c ****  *  @brief   management functions 
 291:Drivers/STM32F4xx_HAL_Driver/Src/stm32f4xx_ll_sdmmc.c ****  *
 292:Drivers/STM32F4xx_HAL_Driver/Src/stm32f4xx_ll_sdmmc.c **** @verbatim   
 293:Drivers/STM32F4xx_HAL_Driver/Src/stm32f4xx_ll_sdmmc.c ****  ===============================================================================
 294:Drivers/STM32F4xx_HAL_Driver/Src/stm32f4xx_ll_sdmmc.c ****                       ##### Peripheral Control functions #####
 295:Drivers/STM32F4xx_HAL_Driver/Src/stm32f4xx_ll_sdmmc.c ****  ===============================================================================  
 296:Drivers/STM32F4xx_HAL_Driver/Src/stm32f4xx_ll_sdmmc.c ****     [..]
 297:Drivers/STM32F4xx_HAL_Driver/Src/stm32f4xx_ll_sdmmc.c ****     This subsection provides a set of functions allowing to control the SDMMC data 
 298:Drivers/STM32F4xx_HAL_Driver/Src/stm32f4xx_ll_sdmmc.c ****     transfers.
 299:Drivers/STM32F4xx_HAL_Driver/Src/stm32f4xx_ll_sdmmc.c **** 
 300:Drivers/STM32F4xx_HAL_Driver/Src/stm32f4xx_ll_sdmmc.c **** @endverbatim
 301:Drivers/STM32F4xx_HAL_Driver/Src/stm32f4xx_ll_sdmmc.c ****   * @{
 302:Drivers/STM32F4xx_HAL_Driver/Src/stm32f4xx_ll_sdmmc.c ****   */
 303:Drivers/STM32F4xx_HAL_Driver/Src/stm32f4xx_ll_sdmmc.c **** 
 304:Drivers/STM32F4xx_HAL_Driver/Src/stm32f4xx_ll_sdmmc.c **** /**
 305:Drivers/STM32F4xx_HAL_Driver/Src/stm32f4xx_ll_sdmmc.c ****   * @brief  Set SDMMC Power state to ON. 
 306:Drivers/STM32F4xx_HAL_Driver/Src/stm32f4xx_ll_sdmmc.c ****   * @param  SDIOx: Pointer to SDMMC register base
 307:Drivers/STM32F4xx_HAL_Driver/Src/stm32f4xx_ll_sdmmc.c ****   * @retval HAL status
 308:Drivers/STM32F4xx_HAL_Driver/Src/stm32f4xx_ll_sdmmc.c ****   */
 309:Drivers/STM32F4xx_HAL_Driver/Src/stm32f4xx_ll_sdmmc.c **** HAL_StatusTypeDef SDIO_PowerState_ON(SDIO_TypeDef *SDIOx)
 310:Drivers/STM32F4xx_HAL_Driver/Src/stm32f4xx_ll_sdmmc.c **** {  
 311:Drivers/STM32F4xx_HAL_Driver/Src/stm32f4xx_ll_sdmmc.c ****   /* Set power state to ON */ 
 312:Drivers/STM32F4xx_HAL_Driver/Src/stm32f4xx_ll_sdmmc.c ****   SDIOx->POWER = SDIO_POWER_PWRCTRL;
 313:Drivers/STM32F4xx_HAL_Driver/Src/stm32f4xx_ll_sdmmc.c **** 
 314:Drivers/STM32F4xx_HAL_Driver/Src/stm32f4xx_ll_sdmmc.c ****   /* 1ms: required power up waiting time before starting the SD initialization
 315:Drivers/STM32F4xx_HAL_Driver/Src/stm32f4xx_ll_sdmmc.c ****   sequence */
 316:Drivers/STM32F4xx_HAL_Driver/Src/stm32f4xx_ll_sdmmc.c ****   HAL_Delay(2);
 317:Drivers/STM32F4xx_HAL_Driver/Src/stm32f4xx_ll_sdmmc.c ****   
ARM GAS  C:\Users\Cihat\AppData\Local\Temp\ccTPXPIa.s 			page 7


 318:Drivers/STM32F4xx_HAL_Driver/Src/stm32f4xx_ll_sdmmc.c ****   return HAL_OK;
 319:Drivers/STM32F4xx_HAL_Driver/Src/stm32f4xx_ll_sdmmc.c **** }
 320:Drivers/STM32F4xx_HAL_Driver/Src/stm32f4xx_ll_sdmmc.c **** 
 321:Drivers/STM32F4xx_HAL_Driver/Src/stm32f4xx_ll_sdmmc.c **** /**
 322:Drivers/STM32F4xx_HAL_Driver/Src/stm32f4xx_ll_sdmmc.c ****   * @brief  Set SDMMC Power state to OFF. 
 323:Drivers/STM32F4xx_HAL_Driver/Src/stm32f4xx_ll_sdmmc.c ****   * @param  SDIOx: Pointer to SDMMC register base
 324:Drivers/STM32F4xx_HAL_Driver/Src/stm32f4xx_ll_sdmmc.c ****   * @retval HAL status
 325:Drivers/STM32F4xx_HAL_Driver/Src/stm32f4xx_ll_sdmmc.c ****   */
 326:Drivers/STM32F4xx_HAL_Driver/Src/stm32f4xx_ll_sdmmc.c **** HAL_StatusTypeDef SDIO_PowerState_OFF(SDIO_TypeDef *SDIOx)
 327:Drivers/STM32F4xx_HAL_Driver/Src/stm32f4xx_ll_sdmmc.c **** {
 328:Drivers/STM32F4xx_HAL_Driver/Src/stm32f4xx_ll_sdmmc.c ****   /* Set power state to OFF */
 329:Drivers/STM32F4xx_HAL_Driver/Src/stm32f4xx_ll_sdmmc.c ****   SDIOx->POWER = (uint32_t)0x00000000;
 330:Drivers/STM32F4xx_HAL_Driver/Src/stm32f4xx_ll_sdmmc.c ****   
 331:Drivers/STM32F4xx_HAL_Driver/Src/stm32f4xx_ll_sdmmc.c ****   return HAL_OK;
 332:Drivers/STM32F4xx_HAL_Driver/Src/stm32f4xx_ll_sdmmc.c **** }
 333:Drivers/STM32F4xx_HAL_Driver/Src/stm32f4xx_ll_sdmmc.c **** 
 334:Drivers/STM32F4xx_HAL_Driver/Src/stm32f4xx_ll_sdmmc.c **** /**
 335:Drivers/STM32F4xx_HAL_Driver/Src/stm32f4xx_ll_sdmmc.c ****   * @brief  Get SDMMC Power state. 
 336:Drivers/STM32F4xx_HAL_Driver/Src/stm32f4xx_ll_sdmmc.c ****   * @param  SDIOx: Pointer to SDMMC register base
 337:Drivers/STM32F4xx_HAL_Driver/Src/stm32f4xx_ll_sdmmc.c ****   * @retval Power status of the controller. The returned value can be one of the 
 338:Drivers/STM32F4xx_HAL_Driver/Src/stm32f4xx_ll_sdmmc.c ****   *         following values:
 339:Drivers/STM32F4xx_HAL_Driver/Src/stm32f4xx_ll_sdmmc.c ****   *            - 0x00: Power OFF
 340:Drivers/STM32F4xx_HAL_Driver/Src/stm32f4xx_ll_sdmmc.c ****   *            - 0x02: Power UP
 341:Drivers/STM32F4xx_HAL_Driver/Src/stm32f4xx_ll_sdmmc.c ****   *            - 0x03: Power ON 
 342:Drivers/STM32F4xx_HAL_Driver/Src/stm32f4xx_ll_sdmmc.c ****   */
 343:Drivers/STM32F4xx_HAL_Driver/Src/stm32f4xx_ll_sdmmc.c **** uint32_t SDIO_GetPowerState(SDIO_TypeDef *SDIOx)  
 344:Drivers/STM32F4xx_HAL_Driver/Src/stm32f4xx_ll_sdmmc.c **** {
 345:Drivers/STM32F4xx_HAL_Driver/Src/stm32f4xx_ll_sdmmc.c ****   return (SDIOx->POWER & SDIO_POWER_PWRCTRL);
 346:Drivers/STM32F4xx_HAL_Driver/Src/stm32f4xx_ll_sdmmc.c **** }
 347:Drivers/STM32F4xx_HAL_Driver/Src/stm32f4xx_ll_sdmmc.c **** 
 348:Drivers/STM32F4xx_HAL_Driver/Src/stm32f4xx_ll_sdmmc.c **** /**
 349:Drivers/STM32F4xx_HAL_Driver/Src/stm32f4xx_ll_sdmmc.c ****   * @brief  Configure the SDMMC command path according to the specified parameters in
 350:Drivers/STM32F4xx_HAL_Driver/Src/stm32f4xx_ll_sdmmc.c ****   *         SDIO_CmdInitTypeDef structure and send the command 
 351:Drivers/STM32F4xx_HAL_Driver/Src/stm32f4xx_ll_sdmmc.c ****   * @param  SDIOx: Pointer to SDMMC register base
 352:Drivers/STM32F4xx_HAL_Driver/Src/stm32f4xx_ll_sdmmc.c ****   * @param  Command: pointer to a SDIO_CmdInitTypeDef structure that contains 
 353:Drivers/STM32F4xx_HAL_Driver/Src/stm32f4xx_ll_sdmmc.c ****   *         the configuration information for the SDMMC command
 354:Drivers/STM32F4xx_HAL_Driver/Src/stm32f4xx_ll_sdmmc.c ****   * @retval HAL status
 355:Drivers/STM32F4xx_HAL_Driver/Src/stm32f4xx_ll_sdmmc.c ****   */
 356:Drivers/STM32F4xx_HAL_Driver/Src/stm32f4xx_ll_sdmmc.c **** HAL_StatusTypeDef SDIO_SendCommand(SDIO_TypeDef *SDIOx, SDIO_CmdInitTypeDef *Command)
 357:Drivers/STM32F4xx_HAL_Driver/Src/stm32f4xx_ll_sdmmc.c **** {
 358:Drivers/STM32F4xx_HAL_Driver/Src/stm32f4xx_ll_sdmmc.c ****   uint32_t tmpreg = 0;
 359:Drivers/STM32F4xx_HAL_Driver/Src/stm32f4xx_ll_sdmmc.c ****   
 360:Drivers/STM32F4xx_HAL_Driver/Src/stm32f4xx_ll_sdmmc.c ****   /* Check the parameters */
 361:Drivers/STM32F4xx_HAL_Driver/Src/stm32f4xx_ll_sdmmc.c ****   assert_param(IS_SDIO_CMD_INDEX(Command->CmdIndex));
 362:Drivers/STM32F4xx_HAL_Driver/Src/stm32f4xx_ll_sdmmc.c ****   assert_param(IS_SDIO_RESPONSE(Command->Response));
 363:Drivers/STM32F4xx_HAL_Driver/Src/stm32f4xx_ll_sdmmc.c ****   assert_param(IS_SDIO_WAIT(Command->WaitForInterrupt));
 364:Drivers/STM32F4xx_HAL_Driver/Src/stm32f4xx_ll_sdmmc.c ****   assert_param(IS_SDIO_CPSM(Command->CPSM));
 365:Drivers/STM32F4xx_HAL_Driver/Src/stm32f4xx_ll_sdmmc.c **** 
 366:Drivers/STM32F4xx_HAL_Driver/Src/stm32f4xx_ll_sdmmc.c ****   /* Set the SDMMC Argument value */
 367:Drivers/STM32F4xx_HAL_Driver/Src/stm32f4xx_ll_sdmmc.c ****   SDIOx->ARG = Command->Argument;
 368:Drivers/STM32F4xx_HAL_Driver/Src/stm32f4xx_ll_sdmmc.c **** 
 369:Drivers/STM32F4xx_HAL_Driver/Src/stm32f4xx_ll_sdmmc.c ****   /* Set SDMMC command parameters */
 370:Drivers/STM32F4xx_HAL_Driver/Src/stm32f4xx_ll_sdmmc.c ****   tmpreg |= (uint32_t)(Command->CmdIndex         |\
 371:Drivers/STM32F4xx_HAL_Driver/Src/stm32f4xx_ll_sdmmc.c ****                        Command->Response         |\
 372:Drivers/STM32F4xx_HAL_Driver/Src/stm32f4xx_ll_sdmmc.c ****                        Command->WaitForInterrupt |\
 373:Drivers/STM32F4xx_HAL_Driver/Src/stm32f4xx_ll_sdmmc.c ****                        Command->CPSM);
 374:Drivers/STM32F4xx_HAL_Driver/Src/stm32f4xx_ll_sdmmc.c ****   
ARM GAS  C:\Users\Cihat\AppData\Local\Temp\ccTPXPIa.s 			page 8


 375:Drivers/STM32F4xx_HAL_Driver/Src/stm32f4xx_ll_sdmmc.c ****   /* Write to SDMMC CMD register */
 376:Drivers/STM32F4xx_HAL_Driver/Src/stm32f4xx_ll_sdmmc.c ****   MODIFY_REG(SDIOx->CMD, CMD_CLEAR_MASK, tmpreg); 
 377:Drivers/STM32F4xx_HAL_Driver/Src/stm32f4xx_ll_sdmmc.c ****   
 378:Drivers/STM32F4xx_HAL_Driver/Src/stm32f4xx_ll_sdmmc.c ****   return HAL_OK;  
 379:Drivers/STM32F4xx_HAL_Driver/Src/stm32f4xx_ll_sdmmc.c **** }
 380:Drivers/STM32F4xx_HAL_Driver/Src/stm32f4xx_ll_sdmmc.c **** 
 381:Drivers/STM32F4xx_HAL_Driver/Src/stm32f4xx_ll_sdmmc.c **** /**
 382:Drivers/STM32F4xx_HAL_Driver/Src/stm32f4xx_ll_sdmmc.c ****   * @brief  Return the command index of last command for which response received
 383:Drivers/STM32F4xx_HAL_Driver/Src/stm32f4xx_ll_sdmmc.c ****   * @param  SDIOx: Pointer to SDMMC register base
 384:Drivers/STM32F4xx_HAL_Driver/Src/stm32f4xx_ll_sdmmc.c ****   * @retval Command index of the last command response received
 385:Drivers/STM32F4xx_HAL_Driver/Src/stm32f4xx_ll_sdmmc.c ****   */
 386:Drivers/STM32F4xx_HAL_Driver/Src/stm32f4xx_ll_sdmmc.c **** uint8_t SDIO_GetCommandResponse(SDIO_TypeDef *SDIOx)
 387:Drivers/STM32F4xx_HAL_Driver/Src/stm32f4xx_ll_sdmmc.c **** {
 388:Drivers/STM32F4xx_HAL_Driver/Src/stm32f4xx_ll_sdmmc.c ****   return (uint8_t)(SDIOx->RESPCMD);
 389:Drivers/STM32F4xx_HAL_Driver/Src/stm32f4xx_ll_sdmmc.c **** }
 390:Drivers/STM32F4xx_HAL_Driver/Src/stm32f4xx_ll_sdmmc.c **** 
 391:Drivers/STM32F4xx_HAL_Driver/Src/stm32f4xx_ll_sdmmc.c **** 
 392:Drivers/STM32F4xx_HAL_Driver/Src/stm32f4xx_ll_sdmmc.c **** /**
 393:Drivers/STM32F4xx_HAL_Driver/Src/stm32f4xx_ll_sdmmc.c ****   * @brief  Return the response received from the card for the last command
 394:Drivers/STM32F4xx_HAL_Driver/Src/stm32f4xx_ll_sdmmc.c ****   * @param  SDIOx: Pointer to SDMMC register base    
 395:Drivers/STM32F4xx_HAL_Driver/Src/stm32f4xx_ll_sdmmc.c ****   * @param  Response: Specifies the SDMMC response register. 
 396:Drivers/STM32F4xx_HAL_Driver/Src/stm32f4xx_ll_sdmmc.c ****   *          This parameter can be one of the following values:
 397:Drivers/STM32F4xx_HAL_Driver/Src/stm32f4xx_ll_sdmmc.c ****   *            @arg SDIO_RESP1: Response Register 1
 398:Drivers/STM32F4xx_HAL_Driver/Src/stm32f4xx_ll_sdmmc.c ****   *            @arg SDIO_RESP2: Response Register 2
 399:Drivers/STM32F4xx_HAL_Driver/Src/stm32f4xx_ll_sdmmc.c ****   *            @arg SDIO_RESP3: Response Register 3
 400:Drivers/STM32F4xx_HAL_Driver/Src/stm32f4xx_ll_sdmmc.c ****   *            @arg SDIO_RESP4: Response Register 4  
 401:Drivers/STM32F4xx_HAL_Driver/Src/stm32f4xx_ll_sdmmc.c ****   * @retval The Corresponding response register value
 402:Drivers/STM32F4xx_HAL_Driver/Src/stm32f4xx_ll_sdmmc.c ****   */
 403:Drivers/STM32F4xx_HAL_Driver/Src/stm32f4xx_ll_sdmmc.c **** uint32_t SDIO_GetResponse(SDIO_TypeDef *SDIOx, uint32_t Response)
 404:Drivers/STM32F4xx_HAL_Driver/Src/stm32f4xx_ll_sdmmc.c **** {
 405:Drivers/STM32F4xx_HAL_Driver/Src/stm32f4xx_ll_sdmmc.c ****   uint32_t tmp;
 406:Drivers/STM32F4xx_HAL_Driver/Src/stm32f4xx_ll_sdmmc.c **** 
 407:Drivers/STM32F4xx_HAL_Driver/Src/stm32f4xx_ll_sdmmc.c ****   /* Check the parameters */
 408:Drivers/STM32F4xx_HAL_Driver/Src/stm32f4xx_ll_sdmmc.c ****   assert_param(IS_SDIO_RESP(Response));
 409:Drivers/STM32F4xx_HAL_Driver/Src/stm32f4xx_ll_sdmmc.c ****   
 410:Drivers/STM32F4xx_HAL_Driver/Src/stm32f4xx_ll_sdmmc.c ****   /* Get the response */
 411:Drivers/STM32F4xx_HAL_Driver/Src/stm32f4xx_ll_sdmmc.c ****   tmp = (uint32_t)(&(SDIOx->RESP1)) + Response;
 412:Drivers/STM32F4xx_HAL_Driver/Src/stm32f4xx_ll_sdmmc.c ****   
 413:Drivers/STM32F4xx_HAL_Driver/Src/stm32f4xx_ll_sdmmc.c ****   return (*(__IO uint32_t *) tmp);
 414:Drivers/STM32F4xx_HAL_Driver/Src/stm32f4xx_ll_sdmmc.c **** }  
 415:Drivers/STM32F4xx_HAL_Driver/Src/stm32f4xx_ll_sdmmc.c **** 
 416:Drivers/STM32F4xx_HAL_Driver/Src/stm32f4xx_ll_sdmmc.c **** /**
 417:Drivers/STM32F4xx_HAL_Driver/Src/stm32f4xx_ll_sdmmc.c ****   * @brief  Configure the SDMMC data path according to the specified 
 418:Drivers/STM32F4xx_HAL_Driver/Src/stm32f4xx_ll_sdmmc.c ****   *         parameters in the SDIO_DataInitTypeDef.
 419:Drivers/STM32F4xx_HAL_Driver/Src/stm32f4xx_ll_sdmmc.c ****   * @param  SDIOx: Pointer to SDIO register base  
 420:Drivers/STM32F4xx_HAL_Driver/Src/stm32f4xx_ll_sdmmc.c ****   * @param  Data : pointer to a SDIO_DataInitTypeDef structure 
 421:Drivers/STM32F4xx_HAL_Driver/Src/stm32f4xx_ll_sdmmc.c ****   *         that contains the configuration information for the SDMMC data.
 422:Drivers/STM32F4xx_HAL_Driver/Src/stm32f4xx_ll_sdmmc.c ****   * @retval HAL status
 423:Drivers/STM32F4xx_HAL_Driver/Src/stm32f4xx_ll_sdmmc.c ****   */
 424:Drivers/STM32F4xx_HAL_Driver/Src/stm32f4xx_ll_sdmmc.c **** HAL_StatusTypeDef SDIO_ConfigData(SDIO_TypeDef *SDIOx, SDIO_DataInitTypeDef* Data)
 425:Drivers/STM32F4xx_HAL_Driver/Src/stm32f4xx_ll_sdmmc.c **** {
 426:Drivers/STM32F4xx_HAL_Driver/Src/stm32f4xx_ll_sdmmc.c ****   uint32_t tmpreg = 0;
 427:Drivers/STM32F4xx_HAL_Driver/Src/stm32f4xx_ll_sdmmc.c ****   
 428:Drivers/STM32F4xx_HAL_Driver/Src/stm32f4xx_ll_sdmmc.c ****   /* Check the parameters */
 429:Drivers/STM32F4xx_HAL_Driver/Src/stm32f4xx_ll_sdmmc.c ****   assert_param(IS_SDIO_DATA_LENGTH(Data->DataLength));
 430:Drivers/STM32F4xx_HAL_Driver/Src/stm32f4xx_ll_sdmmc.c ****   assert_param(IS_SDIO_BLOCK_SIZE(Data->DataBlockSize));
 431:Drivers/STM32F4xx_HAL_Driver/Src/stm32f4xx_ll_sdmmc.c ****   assert_param(IS_SDIO_TRANSFER_DIR(Data->TransferDir));
ARM GAS  C:\Users\Cihat\AppData\Local\Temp\ccTPXPIa.s 			page 9


 432:Drivers/STM32F4xx_HAL_Driver/Src/stm32f4xx_ll_sdmmc.c ****   assert_param(IS_SDIO_TRANSFER_MODE(Data->TransferMode));
 433:Drivers/STM32F4xx_HAL_Driver/Src/stm32f4xx_ll_sdmmc.c ****   assert_param(IS_SDIO_DPSM(Data->DPSM));
 434:Drivers/STM32F4xx_HAL_Driver/Src/stm32f4xx_ll_sdmmc.c **** 
 435:Drivers/STM32F4xx_HAL_Driver/Src/stm32f4xx_ll_sdmmc.c ****   /* Set the SDMMC Data TimeOut value */
 436:Drivers/STM32F4xx_HAL_Driver/Src/stm32f4xx_ll_sdmmc.c ****   SDIOx->DTIMER = Data->DataTimeOut;
 437:Drivers/STM32F4xx_HAL_Driver/Src/stm32f4xx_ll_sdmmc.c **** 
 438:Drivers/STM32F4xx_HAL_Driver/Src/stm32f4xx_ll_sdmmc.c ****   /* Set the SDMMC DataLength value */
 439:Drivers/STM32F4xx_HAL_Driver/Src/stm32f4xx_ll_sdmmc.c ****   SDIOx->DLEN = Data->DataLength;
 440:Drivers/STM32F4xx_HAL_Driver/Src/stm32f4xx_ll_sdmmc.c **** 
 441:Drivers/STM32F4xx_HAL_Driver/Src/stm32f4xx_ll_sdmmc.c ****   /* Set the SDMMC data configuration parameters */
 442:Drivers/STM32F4xx_HAL_Driver/Src/stm32f4xx_ll_sdmmc.c ****   tmpreg |= (uint32_t)(Data->DataBlockSize |\
 443:Drivers/STM32F4xx_HAL_Driver/Src/stm32f4xx_ll_sdmmc.c ****                        Data->TransferDir   |\
 444:Drivers/STM32F4xx_HAL_Driver/Src/stm32f4xx_ll_sdmmc.c ****                        Data->TransferMode  |\
 445:Drivers/STM32F4xx_HAL_Driver/Src/stm32f4xx_ll_sdmmc.c ****                        Data->DPSM);
 446:Drivers/STM32F4xx_HAL_Driver/Src/stm32f4xx_ll_sdmmc.c ****   
 447:Drivers/STM32F4xx_HAL_Driver/Src/stm32f4xx_ll_sdmmc.c ****   /* Write to SDMMC DCTRL */
 448:Drivers/STM32F4xx_HAL_Driver/Src/stm32f4xx_ll_sdmmc.c ****   MODIFY_REG(SDIOx->DCTRL, DCTRL_CLEAR_MASK, tmpreg);
 449:Drivers/STM32F4xx_HAL_Driver/Src/stm32f4xx_ll_sdmmc.c **** 
 450:Drivers/STM32F4xx_HAL_Driver/Src/stm32f4xx_ll_sdmmc.c ****   return HAL_OK;
 451:Drivers/STM32F4xx_HAL_Driver/Src/stm32f4xx_ll_sdmmc.c **** 
 452:Drivers/STM32F4xx_HAL_Driver/Src/stm32f4xx_ll_sdmmc.c **** }
 453:Drivers/STM32F4xx_HAL_Driver/Src/stm32f4xx_ll_sdmmc.c **** 
 454:Drivers/STM32F4xx_HAL_Driver/Src/stm32f4xx_ll_sdmmc.c **** /**
 455:Drivers/STM32F4xx_HAL_Driver/Src/stm32f4xx_ll_sdmmc.c ****   * @brief  Returns number of remaining data bytes to be transferred.
 456:Drivers/STM32F4xx_HAL_Driver/Src/stm32f4xx_ll_sdmmc.c ****   * @param  SDIOx: Pointer to SDIO register base
 457:Drivers/STM32F4xx_HAL_Driver/Src/stm32f4xx_ll_sdmmc.c ****   * @retval Number of remaining data bytes to be transferred
 458:Drivers/STM32F4xx_HAL_Driver/Src/stm32f4xx_ll_sdmmc.c ****   */
 459:Drivers/STM32F4xx_HAL_Driver/Src/stm32f4xx_ll_sdmmc.c **** uint32_t SDIO_GetDataCounter(SDIO_TypeDef *SDIOx)
 460:Drivers/STM32F4xx_HAL_Driver/Src/stm32f4xx_ll_sdmmc.c **** {
 461:Drivers/STM32F4xx_HAL_Driver/Src/stm32f4xx_ll_sdmmc.c ****   return (SDIOx->DCOUNT);
 462:Drivers/STM32F4xx_HAL_Driver/Src/stm32f4xx_ll_sdmmc.c **** }
 463:Drivers/STM32F4xx_HAL_Driver/Src/stm32f4xx_ll_sdmmc.c **** 
 464:Drivers/STM32F4xx_HAL_Driver/Src/stm32f4xx_ll_sdmmc.c **** /**
 465:Drivers/STM32F4xx_HAL_Driver/Src/stm32f4xx_ll_sdmmc.c ****   * @brief  Get the FIFO data
 466:Drivers/STM32F4xx_HAL_Driver/Src/stm32f4xx_ll_sdmmc.c ****   * @param  SDIOx: Pointer to SDIO register base 
 467:Drivers/STM32F4xx_HAL_Driver/Src/stm32f4xx_ll_sdmmc.c ****   * @retval Data received
 468:Drivers/STM32F4xx_HAL_Driver/Src/stm32f4xx_ll_sdmmc.c ****   */
 469:Drivers/STM32F4xx_HAL_Driver/Src/stm32f4xx_ll_sdmmc.c **** uint32_t SDIO_GetFIFOCount(SDIO_TypeDef *SDIOx)
 470:Drivers/STM32F4xx_HAL_Driver/Src/stm32f4xx_ll_sdmmc.c **** {
 471:Drivers/STM32F4xx_HAL_Driver/Src/stm32f4xx_ll_sdmmc.c ****   return (SDIOx->FIFO);
 472:Drivers/STM32F4xx_HAL_Driver/Src/stm32f4xx_ll_sdmmc.c **** }
 473:Drivers/STM32F4xx_HAL_Driver/Src/stm32f4xx_ll_sdmmc.c **** 
 474:Drivers/STM32F4xx_HAL_Driver/Src/stm32f4xx_ll_sdmmc.c **** /**
 475:Drivers/STM32F4xx_HAL_Driver/Src/stm32f4xx_ll_sdmmc.c ****   * @brief  Sets one of the two options of inserting read wait interval.
 476:Drivers/STM32F4xx_HAL_Driver/Src/stm32f4xx_ll_sdmmc.c ****   * @param  SDIOx: Pointer to SDIO register base   
 477:Drivers/STM32F4xx_HAL_Driver/Src/stm32f4xx_ll_sdmmc.c ****   * @param  SDIO_ReadWaitMode: SDMMC Read Wait operation mode.
 478:Drivers/STM32F4xx_HAL_Driver/Src/stm32f4xx_ll_sdmmc.c ****   *          This parameter can be:
 479:Drivers/STM32F4xx_HAL_Driver/Src/stm32f4xx_ll_sdmmc.c ****   *            @arg SDIO_READ_WAIT_MODE_CLK: Read Wait control by stopping SDMMCCLK
 480:Drivers/STM32F4xx_HAL_Driver/Src/stm32f4xx_ll_sdmmc.c ****   *            @arg SDIO_READ_WAIT_MODE_DATA2: Read Wait control using SDMMC_DATA2
 481:Drivers/STM32F4xx_HAL_Driver/Src/stm32f4xx_ll_sdmmc.c ****   * @retval None
 482:Drivers/STM32F4xx_HAL_Driver/Src/stm32f4xx_ll_sdmmc.c ****   */
 483:Drivers/STM32F4xx_HAL_Driver/Src/stm32f4xx_ll_sdmmc.c **** HAL_StatusTypeDef SDIO_SetSDMMCReadWaitMode(SDIO_TypeDef *SDIOx, uint32_t SDIO_ReadWaitMode)
 484:Drivers/STM32F4xx_HAL_Driver/Src/stm32f4xx_ll_sdmmc.c **** {
 485:Drivers/STM32F4xx_HAL_Driver/Src/stm32f4xx_ll_sdmmc.c ****   /* Check the parameters */
 486:Drivers/STM32F4xx_HAL_Driver/Src/stm32f4xx_ll_sdmmc.c ****   assert_param(IS_SDIO_READWAIT_MODE(SDIO_ReadWaitMode));
 487:Drivers/STM32F4xx_HAL_Driver/Src/stm32f4xx_ll_sdmmc.c **** 
 488:Drivers/STM32F4xx_HAL_Driver/Src/stm32f4xx_ll_sdmmc.c ****   /* Set SDMMC read wait mode */
ARM GAS  C:\Users\Cihat\AppData\Local\Temp\ccTPXPIa.s 			page 10


 489:Drivers/STM32F4xx_HAL_Driver/Src/stm32f4xx_ll_sdmmc.c ****   MODIFY_REG(SDIOx->DCTRL, SDIO_DCTRL_RWMOD, SDIO_ReadWaitMode);
 490:Drivers/STM32F4xx_HAL_Driver/Src/stm32f4xx_ll_sdmmc.c ****   
 491:Drivers/STM32F4xx_HAL_Driver/Src/stm32f4xx_ll_sdmmc.c ****   return HAL_OK;  
 492:Drivers/STM32F4xx_HAL_Driver/Src/stm32f4xx_ll_sdmmc.c **** }
 493:Drivers/STM32F4xx_HAL_Driver/Src/stm32f4xx_ll_sdmmc.c **** 
 494:Drivers/STM32F4xx_HAL_Driver/Src/stm32f4xx_ll_sdmmc.c **** /**
 495:Drivers/STM32F4xx_HAL_Driver/Src/stm32f4xx_ll_sdmmc.c ****   * @}
 496:Drivers/STM32F4xx_HAL_Driver/Src/stm32f4xx_ll_sdmmc.c ****   */
 497:Drivers/STM32F4xx_HAL_Driver/Src/stm32f4xx_ll_sdmmc.c **** 
 498:Drivers/STM32F4xx_HAL_Driver/Src/stm32f4xx_ll_sdmmc.c **** 
 499:Drivers/STM32F4xx_HAL_Driver/Src/stm32f4xx_ll_sdmmc.c **** /** @defgroup HAL_SDMMC_LL_Group4 Command management functions 
 500:Drivers/STM32F4xx_HAL_Driver/Src/stm32f4xx_ll_sdmmc.c ****  *  @brief   Data transfers functions 
 501:Drivers/STM32F4xx_HAL_Driver/Src/stm32f4xx_ll_sdmmc.c ****  *
 502:Drivers/STM32F4xx_HAL_Driver/Src/stm32f4xx_ll_sdmmc.c **** @verbatim   
 503:Drivers/STM32F4xx_HAL_Driver/Src/stm32f4xx_ll_sdmmc.c ****  ===============================================================================
 504:Drivers/STM32F4xx_HAL_Driver/Src/stm32f4xx_ll_sdmmc.c ****                    ##### Commands management functions #####
 505:Drivers/STM32F4xx_HAL_Driver/Src/stm32f4xx_ll_sdmmc.c ****  ===============================================================================  
 506:Drivers/STM32F4xx_HAL_Driver/Src/stm32f4xx_ll_sdmmc.c ****     [..]
 507:Drivers/STM32F4xx_HAL_Driver/Src/stm32f4xx_ll_sdmmc.c ****     This subsection provides a set of functions allowing to manage the needed commands.
 508:Drivers/STM32F4xx_HAL_Driver/Src/stm32f4xx_ll_sdmmc.c **** 
 509:Drivers/STM32F4xx_HAL_Driver/Src/stm32f4xx_ll_sdmmc.c **** @endverbatim
 510:Drivers/STM32F4xx_HAL_Driver/Src/stm32f4xx_ll_sdmmc.c ****   * @{
 511:Drivers/STM32F4xx_HAL_Driver/Src/stm32f4xx_ll_sdmmc.c ****   */
 512:Drivers/STM32F4xx_HAL_Driver/Src/stm32f4xx_ll_sdmmc.c **** 
 513:Drivers/STM32F4xx_HAL_Driver/Src/stm32f4xx_ll_sdmmc.c **** /**
 514:Drivers/STM32F4xx_HAL_Driver/Src/stm32f4xx_ll_sdmmc.c ****   * @brief  Send the Data Block Length command and check the response
 515:Drivers/STM32F4xx_HAL_Driver/Src/stm32f4xx_ll_sdmmc.c ****   * @param  SDIOx: Pointer to SDIO register base 
 516:Drivers/STM32F4xx_HAL_Driver/Src/stm32f4xx_ll_sdmmc.c ****   * @retval HAL status
 517:Drivers/STM32F4xx_HAL_Driver/Src/stm32f4xx_ll_sdmmc.c ****   */
 518:Drivers/STM32F4xx_HAL_Driver/Src/stm32f4xx_ll_sdmmc.c **** uint32_t SDMMC_CmdBlockLength(SDIO_TypeDef *SDIOx, uint32_t BlockSize)
 519:Drivers/STM32F4xx_HAL_Driver/Src/stm32f4xx_ll_sdmmc.c **** {
 520:Drivers/STM32F4xx_HAL_Driver/Src/stm32f4xx_ll_sdmmc.c ****   SDIO_CmdInitTypeDef  sdmmc_cmdinit;
 521:Drivers/STM32F4xx_HAL_Driver/Src/stm32f4xx_ll_sdmmc.c ****   uint32_t errorstate;
 522:Drivers/STM32F4xx_HAL_Driver/Src/stm32f4xx_ll_sdmmc.c ****   
 523:Drivers/STM32F4xx_HAL_Driver/Src/stm32f4xx_ll_sdmmc.c ****   /* Set Block Size for Card */ 
 524:Drivers/STM32F4xx_HAL_Driver/Src/stm32f4xx_ll_sdmmc.c ****   sdmmc_cmdinit.Argument         = (uint32_t)BlockSize;
 525:Drivers/STM32F4xx_HAL_Driver/Src/stm32f4xx_ll_sdmmc.c ****   sdmmc_cmdinit.CmdIndex         = SDMMC_CMD_SET_BLOCKLEN;
 526:Drivers/STM32F4xx_HAL_Driver/Src/stm32f4xx_ll_sdmmc.c ****   sdmmc_cmdinit.Response         = SDIO_RESPONSE_SHORT;
 527:Drivers/STM32F4xx_HAL_Driver/Src/stm32f4xx_ll_sdmmc.c ****   sdmmc_cmdinit.WaitForInterrupt = SDIO_WAIT_NO;
 528:Drivers/STM32F4xx_HAL_Driver/Src/stm32f4xx_ll_sdmmc.c ****   sdmmc_cmdinit.CPSM             = SDIO_CPSM_ENABLE;
 529:Drivers/STM32F4xx_HAL_Driver/Src/stm32f4xx_ll_sdmmc.c ****   (void)SDIO_SendCommand(SDIOx, &sdmmc_cmdinit);
 530:Drivers/STM32F4xx_HAL_Driver/Src/stm32f4xx_ll_sdmmc.c ****   
 531:Drivers/STM32F4xx_HAL_Driver/Src/stm32f4xx_ll_sdmmc.c ****   /* Check for error conditions */
 532:Drivers/STM32F4xx_HAL_Driver/Src/stm32f4xx_ll_sdmmc.c ****   errorstate = SDMMC_GetCmdResp1(SDIOx, SDMMC_CMD_SET_BLOCKLEN, SDIO_CMDTIMEOUT);
 533:Drivers/STM32F4xx_HAL_Driver/Src/stm32f4xx_ll_sdmmc.c **** 
 534:Drivers/STM32F4xx_HAL_Driver/Src/stm32f4xx_ll_sdmmc.c ****   return errorstate;
 535:Drivers/STM32F4xx_HAL_Driver/Src/stm32f4xx_ll_sdmmc.c **** }
 536:Drivers/STM32F4xx_HAL_Driver/Src/stm32f4xx_ll_sdmmc.c **** 
 537:Drivers/STM32F4xx_HAL_Driver/Src/stm32f4xx_ll_sdmmc.c **** /**
 538:Drivers/STM32F4xx_HAL_Driver/Src/stm32f4xx_ll_sdmmc.c ****   * @brief  Send the Read Single Block command and check the response
 539:Drivers/STM32F4xx_HAL_Driver/Src/stm32f4xx_ll_sdmmc.c ****   * @param  SDIOx: Pointer to SDIO register base 
 540:Drivers/STM32F4xx_HAL_Driver/Src/stm32f4xx_ll_sdmmc.c ****   * @retval HAL status
 541:Drivers/STM32F4xx_HAL_Driver/Src/stm32f4xx_ll_sdmmc.c ****   */
 542:Drivers/STM32F4xx_HAL_Driver/Src/stm32f4xx_ll_sdmmc.c **** uint32_t SDMMC_CmdReadSingleBlock(SDIO_TypeDef *SDIOx, uint32_t ReadAdd)
 543:Drivers/STM32F4xx_HAL_Driver/Src/stm32f4xx_ll_sdmmc.c **** {
 544:Drivers/STM32F4xx_HAL_Driver/Src/stm32f4xx_ll_sdmmc.c ****   SDIO_CmdInitTypeDef  sdmmc_cmdinit;
 545:Drivers/STM32F4xx_HAL_Driver/Src/stm32f4xx_ll_sdmmc.c ****   uint32_t errorstate;
ARM GAS  C:\Users\Cihat\AppData\Local\Temp\ccTPXPIa.s 			page 11


 546:Drivers/STM32F4xx_HAL_Driver/Src/stm32f4xx_ll_sdmmc.c ****   
 547:Drivers/STM32F4xx_HAL_Driver/Src/stm32f4xx_ll_sdmmc.c ****   /* Set Block Size for Card */ 
 548:Drivers/STM32F4xx_HAL_Driver/Src/stm32f4xx_ll_sdmmc.c ****   sdmmc_cmdinit.Argument         = (uint32_t)ReadAdd;
 549:Drivers/STM32F4xx_HAL_Driver/Src/stm32f4xx_ll_sdmmc.c ****   sdmmc_cmdinit.CmdIndex         = SDMMC_CMD_READ_SINGLE_BLOCK;
 550:Drivers/STM32F4xx_HAL_Driver/Src/stm32f4xx_ll_sdmmc.c ****   sdmmc_cmdinit.Response         = SDIO_RESPONSE_SHORT;
 551:Drivers/STM32F4xx_HAL_Driver/Src/stm32f4xx_ll_sdmmc.c ****   sdmmc_cmdinit.WaitForInterrupt = SDIO_WAIT_NO;
 552:Drivers/STM32F4xx_HAL_Driver/Src/stm32f4xx_ll_sdmmc.c ****   sdmmc_cmdinit.CPSM             = SDIO_CPSM_ENABLE;
 553:Drivers/STM32F4xx_HAL_Driver/Src/stm32f4xx_ll_sdmmc.c ****   (void)SDIO_SendCommand(SDIOx, &sdmmc_cmdinit);
 554:Drivers/STM32F4xx_HAL_Driver/Src/stm32f4xx_ll_sdmmc.c ****   
 555:Drivers/STM32F4xx_HAL_Driver/Src/stm32f4xx_ll_sdmmc.c ****   /* Check for error conditions */
 556:Drivers/STM32F4xx_HAL_Driver/Src/stm32f4xx_ll_sdmmc.c ****   errorstate = SDMMC_GetCmdResp1(SDIOx, SDMMC_CMD_READ_SINGLE_BLOCK, SDIO_CMDTIMEOUT);
 557:Drivers/STM32F4xx_HAL_Driver/Src/stm32f4xx_ll_sdmmc.c **** 
 558:Drivers/STM32F4xx_HAL_Driver/Src/stm32f4xx_ll_sdmmc.c ****   return errorstate;
 559:Drivers/STM32F4xx_HAL_Driver/Src/stm32f4xx_ll_sdmmc.c **** }
 560:Drivers/STM32F4xx_HAL_Driver/Src/stm32f4xx_ll_sdmmc.c **** 
 561:Drivers/STM32F4xx_HAL_Driver/Src/stm32f4xx_ll_sdmmc.c **** /**
 562:Drivers/STM32F4xx_HAL_Driver/Src/stm32f4xx_ll_sdmmc.c ****   * @brief  Send the Read Multi Block command and check the response
 563:Drivers/STM32F4xx_HAL_Driver/Src/stm32f4xx_ll_sdmmc.c ****   * @param  SDIOx: Pointer to SDIO register base 
 564:Drivers/STM32F4xx_HAL_Driver/Src/stm32f4xx_ll_sdmmc.c ****   * @retval HAL status
 565:Drivers/STM32F4xx_HAL_Driver/Src/stm32f4xx_ll_sdmmc.c ****   */
 566:Drivers/STM32F4xx_HAL_Driver/Src/stm32f4xx_ll_sdmmc.c **** uint32_t SDMMC_CmdReadMultiBlock(SDIO_TypeDef *SDIOx, uint32_t ReadAdd)
 567:Drivers/STM32F4xx_HAL_Driver/Src/stm32f4xx_ll_sdmmc.c **** {
 568:Drivers/STM32F4xx_HAL_Driver/Src/stm32f4xx_ll_sdmmc.c ****   SDIO_CmdInitTypeDef  sdmmc_cmdinit;
 569:Drivers/STM32F4xx_HAL_Driver/Src/stm32f4xx_ll_sdmmc.c ****   uint32_t errorstate;
 570:Drivers/STM32F4xx_HAL_Driver/Src/stm32f4xx_ll_sdmmc.c ****   
 571:Drivers/STM32F4xx_HAL_Driver/Src/stm32f4xx_ll_sdmmc.c ****   /* Set Block Size for Card */ 
 572:Drivers/STM32F4xx_HAL_Driver/Src/stm32f4xx_ll_sdmmc.c ****   sdmmc_cmdinit.Argument         = (uint32_t)ReadAdd;
 573:Drivers/STM32F4xx_HAL_Driver/Src/stm32f4xx_ll_sdmmc.c ****   sdmmc_cmdinit.CmdIndex         = SDMMC_CMD_READ_MULT_BLOCK;
 574:Drivers/STM32F4xx_HAL_Driver/Src/stm32f4xx_ll_sdmmc.c ****   sdmmc_cmdinit.Response         = SDIO_RESPONSE_SHORT;
 575:Drivers/STM32F4xx_HAL_Driver/Src/stm32f4xx_ll_sdmmc.c ****   sdmmc_cmdinit.WaitForInterrupt = SDIO_WAIT_NO;
 576:Drivers/STM32F4xx_HAL_Driver/Src/stm32f4xx_ll_sdmmc.c ****   sdmmc_cmdinit.CPSM             = SDIO_CPSM_ENABLE;
 577:Drivers/STM32F4xx_HAL_Driver/Src/stm32f4xx_ll_sdmmc.c ****   (void)SDIO_SendCommand(SDIOx, &sdmmc_cmdinit);
 578:Drivers/STM32F4xx_HAL_Driver/Src/stm32f4xx_ll_sdmmc.c ****   
 579:Drivers/STM32F4xx_HAL_Driver/Src/stm32f4xx_ll_sdmmc.c ****   /* Check for error conditions */
 580:Drivers/STM32F4xx_HAL_Driver/Src/stm32f4xx_ll_sdmmc.c ****   errorstate = SDMMC_GetCmdResp1(SDIOx, SDMMC_CMD_READ_MULT_BLOCK, SDIO_CMDTIMEOUT);
 581:Drivers/STM32F4xx_HAL_Driver/Src/stm32f4xx_ll_sdmmc.c **** 
 582:Drivers/STM32F4xx_HAL_Driver/Src/stm32f4xx_ll_sdmmc.c ****   return errorstate;
 583:Drivers/STM32F4xx_HAL_Driver/Src/stm32f4xx_ll_sdmmc.c **** }
 584:Drivers/STM32F4xx_HAL_Driver/Src/stm32f4xx_ll_sdmmc.c **** 
 585:Drivers/STM32F4xx_HAL_Driver/Src/stm32f4xx_ll_sdmmc.c **** /**
 586:Drivers/STM32F4xx_HAL_Driver/Src/stm32f4xx_ll_sdmmc.c ****   * @brief  Send the Write Single Block command and check the response
 587:Drivers/STM32F4xx_HAL_Driver/Src/stm32f4xx_ll_sdmmc.c ****   * @param  SDIOx: Pointer to SDIO register base 
 588:Drivers/STM32F4xx_HAL_Driver/Src/stm32f4xx_ll_sdmmc.c ****   * @retval HAL status
 589:Drivers/STM32F4xx_HAL_Driver/Src/stm32f4xx_ll_sdmmc.c ****   */
 590:Drivers/STM32F4xx_HAL_Driver/Src/stm32f4xx_ll_sdmmc.c **** uint32_t SDMMC_CmdWriteSingleBlock(SDIO_TypeDef *SDIOx, uint32_t WriteAdd)
 591:Drivers/STM32F4xx_HAL_Driver/Src/stm32f4xx_ll_sdmmc.c **** {
 592:Drivers/STM32F4xx_HAL_Driver/Src/stm32f4xx_ll_sdmmc.c ****   SDIO_CmdInitTypeDef  sdmmc_cmdinit;
 593:Drivers/STM32F4xx_HAL_Driver/Src/stm32f4xx_ll_sdmmc.c ****   uint32_t errorstate;
 594:Drivers/STM32F4xx_HAL_Driver/Src/stm32f4xx_ll_sdmmc.c ****   
 595:Drivers/STM32F4xx_HAL_Driver/Src/stm32f4xx_ll_sdmmc.c ****   /* Set Block Size for Card */ 
 596:Drivers/STM32F4xx_HAL_Driver/Src/stm32f4xx_ll_sdmmc.c ****   sdmmc_cmdinit.Argument         = (uint32_t)WriteAdd;
 597:Drivers/STM32F4xx_HAL_Driver/Src/stm32f4xx_ll_sdmmc.c ****   sdmmc_cmdinit.CmdIndex         = SDMMC_CMD_WRITE_SINGLE_BLOCK;
 598:Drivers/STM32F4xx_HAL_Driver/Src/stm32f4xx_ll_sdmmc.c ****   sdmmc_cmdinit.Response         = SDIO_RESPONSE_SHORT;
 599:Drivers/STM32F4xx_HAL_Driver/Src/stm32f4xx_ll_sdmmc.c ****   sdmmc_cmdinit.WaitForInterrupt = SDIO_WAIT_NO;
 600:Drivers/STM32F4xx_HAL_Driver/Src/stm32f4xx_ll_sdmmc.c ****   sdmmc_cmdinit.CPSM             = SDIO_CPSM_ENABLE;
 601:Drivers/STM32F4xx_HAL_Driver/Src/stm32f4xx_ll_sdmmc.c ****   (void)SDIO_SendCommand(SDIOx, &sdmmc_cmdinit);
 602:Drivers/STM32F4xx_HAL_Driver/Src/stm32f4xx_ll_sdmmc.c ****   
ARM GAS  C:\Users\Cihat\AppData\Local\Temp\ccTPXPIa.s 			page 12


 603:Drivers/STM32F4xx_HAL_Driver/Src/stm32f4xx_ll_sdmmc.c ****   /* Check for error conditions */
 604:Drivers/STM32F4xx_HAL_Driver/Src/stm32f4xx_ll_sdmmc.c ****   errorstate = SDMMC_GetCmdResp1(SDIOx, SDMMC_CMD_WRITE_SINGLE_BLOCK, SDIO_CMDTIMEOUT);
 605:Drivers/STM32F4xx_HAL_Driver/Src/stm32f4xx_ll_sdmmc.c **** 
 606:Drivers/STM32F4xx_HAL_Driver/Src/stm32f4xx_ll_sdmmc.c ****   return errorstate;
 607:Drivers/STM32F4xx_HAL_Driver/Src/stm32f4xx_ll_sdmmc.c **** }
 608:Drivers/STM32F4xx_HAL_Driver/Src/stm32f4xx_ll_sdmmc.c **** 
 609:Drivers/STM32F4xx_HAL_Driver/Src/stm32f4xx_ll_sdmmc.c **** /**
 610:Drivers/STM32F4xx_HAL_Driver/Src/stm32f4xx_ll_sdmmc.c ****   * @brief  Send the Write Multi Block command and check the response
 611:Drivers/STM32F4xx_HAL_Driver/Src/stm32f4xx_ll_sdmmc.c ****   * @param  SDIOx: Pointer to SDIO register base 
 612:Drivers/STM32F4xx_HAL_Driver/Src/stm32f4xx_ll_sdmmc.c ****   * @retval HAL status
 613:Drivers/STM32F4xx_HAL_Driver/Src/stm32f4xx_ll_sdmmc.c ****   */
 614:Drivers/STM32F4xx_HAL_Driver/Src/stm32f4xx_ll_sdmmc.c **** uint32_t SDMMC_CmdWriteMultiBlock(SDIO_TypeDef *SDIOx, uint32_t WriteAdd)
 615:Drivers/STM32F4xx_HAL_Driver/Src/stm32f4xx_ll_sdmmc.c **** {
 616:Drivers/STM32F4xx_HAL_Driver/Src/stm32f4xx_ll_sdmmc.c ****   SDIO_CmdInitTypeDef  sdmmc_cmdinit;
 617:Drivers/STM32F4xx_HAL_Driver/Src/stm32f4xx_ll_sdmmc.c ****   uint32_t errorstate;
 618:Drivers/STM32F4xx_HAL_Driver/Src/stm32f4xx_ll_sdmmc.c ****   
 619:Drivers/STM32F4xx_HAL_Driver/Src/stm32f4xx_ll_sdmmc.c ****   /* Set Block Size for Card */ 
 620:Drivers/STM32F4xx_HAL_Driver/Src/stm32f4xx_ll_sdmmc.c ****   sdmmc_cmdinit.Argument         = (uint32_t)WriteAdd;
 621:Drivers/STM32F4xx_HAL_Driver/Src/stm32f4xx_ll_sdmmc.c ****   sdmmc_cmdinit.CmdIndex         = SDMMC_CMD_WRITE_MULT_BLOCK;
 622:Drivers/STM32F4xx_HAL_Driver/Src/stm32f4xx_ll_sdmmc.c ****   sdmmc_cmdinit.Response         = SDIO_RESPONSE_SHORT;
 623:Drivers/STM32F4xx_HAL_Driver/Src/stm32f4xx_ll_sdmmc.c ****   sdmmc_cmdinit.WaitForInterrupt = SDIO_WAIT_NO;
 624:Drivers/STM32F4xx_HAL_Driver/Src/stm32f4xx_ll_sdmmc.c ****   sdmmc_cmdinit.CPSM             = SDIO_CPSM_ENABLE;
 625:Drivers/STM32F4xx_HAL_Driver/Src/stm32f4xx_ll_sdmmc.c ****   (void)SDIO_SendCommand(SDIOx, &sdmmc_cmdinit);
 626:Drivers/STM32F4xx_HAL_Driver/Src/stm32f4xx_ll_sdmmc.c ****   
 627:Drivers/STM32F4xx_HAL_Driver/Src/stm32f4xx_ll_sdmmc.c ****   /* Check for error conditions */
 628:Drivers/STM32F4xx_HAL_Driver/Src/stm32f4xx_ll_sdmmc.c ****   errorstate = SDMMC_GetCmdResp1(SDIOx, SDMMC_CMD_WRITE_MULT_BLOCK, SDIO_CMDTIMEOUT);
 629:Drivers/STM32F4xx_HAL_Driver/Src/stm32f4xx_ll_sdmmc.c **** 
 630:Drivers/STM32F4xx_HAL_Driver/Src/stm32f4xx_ll_sdmmc.c ****   return errorstate;
 631:Drivers/STM32F4xx_HAL_Driver/Src/stm32f4xx_ll_sdmmc.c **** }
 632:Drivers/STM32F4xx_HAL_Driver/Src/stm32f4xx_ll_sdmmc.c **** 
 633:Drivers/STM32F4xx_HAL_Driver/Src/stm32f4xx_ll_sdmmc.c **** /**
 634:Drivers/STM32F4xx_HAL_Driver/Src/stm32f4xx_ll_sdmmc.c ****   * @brief  Send the Start Address Erase command for SD and check the response
 635:Drivers/STM32F4xx_HAL_Driver/Src/stm32f4xx_ll_sdmmc.c ****   * @param  SDIOx: Pointer to SDIO register base 
 636:Drivers/STM32F4xx_HAL_Driver/Src/stm32f4xx_ll_sdmmc.c ****   * @retval HAL status
 637:Drivers/STM32F4xx_HAL_Driver/Src/stm32f4xx_ll_sdmmc.c ****   */
 638:Drivers/STM32F4xx_HAL_Driver/Src/stm32f4xx_ll_sdmmc.c **** uint32_t SDMMC_CmdSDEraseStartAdd(SDIO_TypeDef *SDIOx, uint32_t StartAdd)
 639:Drivers/STM32F4xx_HAL_Driver/Src/stm32f4xx_ll_sdmmc.c **** {
 640:Drivers/STM32F4xx_HAL_Driver/Src/stm32f4xx_ll_sdmmc.c ****   SDIO_CmdInitTypeDef  sdmmc_cmdinit;
 641:Drivers/STM32F4xx_HAL_Driver/Src/stm32f4xx_ll_sdmmc.c ****   uint32_t errorstate;
 642:Drivers/STM32F4xx_HAL_Driver/Src/stm32f4xx_ll_sdmmc.c ****   
 643:Drivers/STM32F4xx_HAL_Driver/Src/stm32f4xx_ll_sdmmc.c ****   /* Set Block Size for Card */ 
 644:Drivers/STM32F4xx_HAL_Driver/Src/stm32f4xx_ll_sdmmc.c ****   sdmmc_cmdinit.Argument         = (uint32_t)StartAdd;
 645:Drivers/STM32F4xx_HAL_Driver/Src/stm32f4xx_ll_sdmmc.c ****   sdmmc_cmdinit.CmdIndex         = SDMMC_CMD_SD_ERASE_GRP_START;
 646:Drivers/STM32F4xx_HAL_Driver/Src/stm32f4xx_ll_sdmmc.c ****   sdmmc_cmdinit.Response         = SDIO_RESPONSE_SHORT;
 647:Drivers/STM32F4xx_HAL_Driver/Src/stm32f4xx_ll_sdmmc.c ****   sdmmc_cmdinit.WaitForInterrupt = SDIO_WAIT_NO;
 648:Drivers/STM32F4xx_HAL_Driver/Src/stm32f4xx_ll_sdmmc.c ****   sdmmc_cmdinit.CPSM             = SDIO_CPSM_ENABLE;
 649:Drivers/STM32F4xx_HAL_Driver/Src/stm32f4xx_ll_sdmmc.c ****   (void)SDIO_SendCommand(SDIOx, &sdmmc_cmdinit);
 650:Drivers/STM32F4xx_HAL_Driver/Src/stm32f4xx_ll_sdmmc.c ****   
 651:Drivers/STM32F4xx_HAL_Driver/Src/stm32f4xx_ll_sdmmc.c ****   /* Check for error conditions */
 652:Drivers/STM32F4xx_HAL_Driver/Src/stm32f4xx_ll_sdmmc.c ****   errorstate = SDMMC_GetCmdResp1(SDIOx, SDMMC_CMD_SD_ERASE_GRP_START, SDIO_CMDTIMEOUT);
 653:Drivers/STM32F4xx_HAL_Driver/Src/stm32f4xx_ll_sdmmc.c **** 
 654:Drivers/STM32F4xx_HAL_Driver/Src/stm32f4xx_ll_sdmmc.c ****   return errorstate;
 655:Drivers/STM32F4xx_HAL_Driver/Src/stm32f4xx_ll_sdmmc.c **** }
 656:Drivers/STM32F4xx_HAL_Driver/Src/stm32f4xx_ll_sdmmc.c **** 
 657:Drivers/STM32F4xx_HAL_Driver/Src/stm32f4xx_ll_sdmmc.c **** /**
 658:Drivers/STM32F4xx_HAL_Driver/Src/stm32f4xx_ll_sdmmc.c ****   * @brief  Send the End Address Erase command for SD and check the response
 659:Drivers/STM32F4xx_HAL_Driver/Src/stm32f4xx_ll_sdmmc.c ****   * @param  SDIOx: Pointer to SDIO register base 
ARM GAS  C:\Users\Cihat\AppData\Local\Temp\ccTPXPIa.s 			page 13


 660:Drivers/STM32F4xx_HAL_Driver/Src/stm32f4xx_ll_sdmmc.c ****   * @retval HAL status
 661:Drivers/STM32F4xx_HAL_Driver/Src/stm32f4xx_ll_sdmmc.c ****   */
 662:Drivers/STM32F4xx_HAL_Driver/Src/stm32f4xx_ll_sdmmc.c **** uint32_t SDMMC_CmdSDEraseEndAdd(SDIO_TypeDef *SDIOx, uint32_t EndAdd)
 663:Drivers/STM32F4xx_HAL_Driver/Src/stm32f4xx_ll_sdmmc.c **** {
 664:Drivers/STM32F4xx_HAL_Driver/Src/stm32f4xx_ll_sdmmc.c ****   SDIO_CmdInitTypeDef  sdmmc_cmdinit;
 665:Drivers/STM32F4xx_HAL_Driver/Src/stm32f4xx_ll_sdmmc.c ****   uint32_t errorstate;
 666:Drivers/STM32F4xx_HAL_Driver/Src/stm32f4xx_ll_sdmmc.c ****   
 667:Drivers/STM32F4xx_HAL_Driver/Src/stm32f4xx_ll_sdmmc.c ****   /* Set Block Size for Card */ 
 668:Drivers/STM32F4xx_HAL_Driver/Src/stm32f4xx_ll_sdmmc.c ****   sdmmc_cmdinit.Argument         = (uint32_t)EndAdd;
 669:Drivers/STM32F4xx_HAL_Driver/Src/stm32f4xx_ll_sdmmc.c ****   sdmmc_cmdinit.CmdIndex         = SDMMC_CMD_SD_ERASE_GRP_END;
 670:Drivers/STM32F4xx_HAL_Driver/Src/stm32f4xx_ll_sdmmc.c ****   sdmmc_cmdinit.Response         = SDIO_RESPONSE_SHORT;
 671:Drivers/STM32F4xx_HAL_Driver/Src/stm32f4xx_ll_sdmmc.c ****   sdmmc_cmdinit.WaitForInterrupt = SDIO_WAIT_NO;
 672:Drivers/STM32F4xx_HAL_Driver/Src/stm32f4xx_ll_sdmmc.c ****   sdmmc_cmdinit.CPSM             = SDIO_CPSM_ENABLE;
 673:Drivers/STM32F4xx_HAL_Driver/Src/stm32f4xx_ll_sdmmc.c ****   (void)SDIO_SendCommand(SDIOx, &sdmmc_cmdinit);
 674:Drivers/STM32F4xx_HAL_Driver/Src/stm32f4xx_ll_sdmmc.c ****   
 675:Drivers/STM32F4xx_HAL_Driver/Src/stm32f4xx_ll_sdmmc.c ****   /* Check for error conditions */
 676:Drivers/STM32F4xx_HAL_Driver/Src/stm32f4xx_ll_sdmmc.c ****   errorstate = SDMMC_GetCmdResp1(SDIOx, SDMMC_CMD_SD_ERASE_GRP_END, SDIO_CMDTIMEOUT);
 677:Drivers/STM32F4xx_HAL_Driver/Src/stm32f4xx_ll_sdmmc.c **** 
 678:Drivers/STM32F4xx_HAL_Driver/Src/stm32f4xx_ll_sdmmc.c ****   return errorstate;
 679:Drivers/STM32F4xx_HAL_Driver/Src/stm32f4xx_ll_sdmmc.c **** }
 680:Drivers/STM32F4xx_HAL_Driver/Src/stm32f4xx_ll_sdmmc.c **** 
 681:Drivers/STM32F4xx_HAL_Driver/Src/stm32f4xx_ll_sdmmc.c **** /**
 682:Drivers/STM32F4xx_HAL_Driver/Src/stm32f4xx_ll_sdmmc.c ****   * @brief  Send the Start Address Erase command and check the response
 683:Drivers/STM32F4xx_HAL_Driver/Src/stm32f4xx_ll_sdmmc.c ****   * @param  SDIOx: Pointer to SDIO register base 
 684:Drivers/STM32F4xx_HAL_Driver/Src/stm32f4xx_ll_sdmmc.c ****   * @retval HAL status
 685:Drivers/STM32F4xx_HAL_Driver/Src/stm32f4xx_ll_sdmmc.c ****   */
 686:Drivers/STM32F4xx_HAL_Driver/Src/stm32f4xx_ll_sdmmc.c **** uint32_t SDMMC_CmdEraseStartAdd(SDIO_TypeDef *SDIOx, uint32_t StartAdd)
 687:Drivers/STM32F4xx_HAL_Driver/Src/stm32f4xx_ll_sdmmc.c **** {
 688:Drivers/STM32F4xx_HAL_Driver/Src/stm32f4xx_ll_sdmmc.c ****   SDIO_CmdInitTypeDef  sdmmc_cmdinit;
 689:Drivers/STM32F4xx_HAL_Driver/Src/stm32f4xx_ll_sdmmc.c ****   uint32_t errorstate;
 690:Drivers/STM32F4xx_HAL_Driver/Src/stm32f4xx_ll_sdmmc.c ****   
 691:Drivers/STM32F4xx_HAL_Driver/Src/stm32f4xx_ll_sdmmc.c ****   /* Set Block Size for Card */ 
 692:Drivers/STM32F4xx_HAL_Driver/Src/stm32f4xx_ll_sdmmc.c ****   sdmmc_cmdinit.Argument         = (uint32_t)StartAdd;
 693:Drivers/STM32F4xx_HAL_Driver/Src/stm32f4xx_ll_sdmmc.c ****   sdmmc_cmdinit.CmdIndex         = SDMMC_CMD_ERASE_GRP_START;
 694:Drivers/STM32F4xx_HAL_Driver/Src/stm32f4xx_ll_sdmmc.c ****   sdmmc_cmdinit.Response         = SDIO_RESPONSE_SHORT;
 695:Drivers/STM32F4xx_HAL_Driver/Src/stm32f4xx_ll_sdmmc.c ****   sdmmc_cmdinit.WaitForInterrupt = SDIO_WAIT_NO;
 696:Drivers/STM32F4xx_HAL_Driver/Src/stm32f4xx_ll_sdmmc.c ****   sdmmc_cmdinit.CPSM             = SDIO_CPSM_ENABLE;
 697:Drivers/STM32F4xx_HAL_Driver/Src/stm32f4xx_ll_sdmmc.c ****   (void)SDIO_SendCommand(SDIOx, &sdmmc_cmdinit);
 698:Drivers/STM32F4xx_HAL_Driver/Src/stm32f4xx_ll_sdmmc.c ****   
 699:Drivers/STM32F4xx_HAL_Driver/Src/stm32f4xx_ll_sdmmc.c ****   /* Check for error conditions */
 700:Drivers/STM32F4xx_HAL_Driver/Src/stm32f4xx_ll_sdmmc.c ****   errorstate = SDMMC_GetCmdResp1(SDIOx, SDMMC_CMD_ERASE_GRP_START, SDIO_CMDTIMEOUT);
 701:Drivers/STM32F4xx_HAL_Driver/Src/stm32f4xx_ll_sdmmc.c **** 
 702:Drivers/STM32F4xx_HAL_Driver/Src/stm32f4xx_ll_sdmmc.c ****   return errorstate;
 703:Drivers/STM32F4xx_HAL_Driver/Src/stm32f4xx_ll_sdmmc.c **** }
 704:Drivers/STM32F4xx_HAL_Driver/Src/stm32f4xx_ll_sdmmc.c **** 
 705:Drivers/STM32F4xx_HAL_Driver/Src/stm32f4xx_ll_sdmmc.c **** /**
 706:Drivers/STM32F4xx_HAL_Driver/Src/stm32f4xx_ll_sdmmc.c ****   * @brief  Send the End Address Erase command and check the response
 707:Drivers/STM32F4xx_HAL_Driver/Src/stm32f4xx_ll_sdmmc.c ****   * @param  SDIOx: Pointer to SDIO register base 
 708:Drivers/STM32F4xx_HAL_Driver/Src/stm32f4xx_ll_sdmmc.c ****   * @retval HAL status
 709:Drivers/STM32F4xx_HAL_Driver/Src/stm32f4xx_ll_sdmmc.c ****   */
 710:Drivers/STM32F4xx_HAL_Driver/Src/stm32f4xx_ll_sdmmc.c **** uint32_t SDMMC_CmdEraseEndAdd(SDIO_TypeDef *SDIOx, uint32_t EndAdd)
 711:Drivers/STM32F4xx_HAL_Driver/Src/stm32f4xx_ll_sdmmc.c **** {
 712:Drivers/STM32F4xx_HAL_Driver/Src/stm32f4xx_ll_sdmmc.c ****   SDIO_CmdInitTypeDef  sdmmc_cmdinit;
 713:Drivers/STM32F4xx_HAL_Driver/Src/stm32f4xx_ll_sdmmc.c ****   uint32_t errorstate;
 714:Drivers/STM32F4xx_HAL_Driver/Src/stm32f4xx_ll_sdmmc.c ****   
 715:Drivers/STM32F4xx_HAL_Driver/Src/stm32f4xx_ll_sdmmc.c ****   /* Set Block Size for Card */ 
 716:Drivers/STM32F4xx_HAL_Driver/Src/stm32f4xx_ll_sdmmc.c ****   sdmmc_cmdinit.Argument         = (uint32_t)EndAdd;
ARM GAS  C:\Users\Cihat\AppData\Local\Temp\ccTPXPIa.s 			page 14


 717:Drivers/STM32F4xx_HAL_Driver/Src/stm32f4xx_ll_sdmmc.c ****   sdmmc_cmdinit.CmdIndex         = SDMMC_CMD_ERASE_GRP_END;
 718:Drivers/STM32F4xx_HAL_Driver/Src/stm32f4xx_ll_sdmmc.c ****   sdmmc_cmdinit.Response         = SDIO_RESPONSE_SHORT;
 719:Drivers/STM32F4xx_HAL_Driver/Src/stm32f4xx_ll_sdmmc.c ****   sdmmc_cmdinit.WaitForInterrupt = SDIO_WAIT_NO;
 720:Drivers/STM32F4xx_HAL_Driver/Src/stm32f4xx_ll_sdmmc.c ****   sdmmc_cmdinit.CPSM             = SDIO_CPSM_ENABLE;
 721:Drivers/STM32F4xx_HAL_Driver/Src/stm32f4xx_ll_sdmmc.c ****   (void)SDIO_SendCommand(SDIOx, &sdmmc_cmdinit);
 722:Drivers/STM32F4xx_HAL_Driver/Src/stm32f4xx_ll_sdmmc.c ****   
 723:Drivers/STM32F4xx_HAL_Driver/Src/stm32f4xx_ll_sdmmc.c ****   /* Check for error conditions */
 724:Drivers/STM32F4xx_HAL_Driver/Src/stm32f4xx_ll_sdmmc.c ****   errorstate = SDMMC_GetCmdResp1(SDIOx, SDMMC_CMD_ERASE_GRP_END, SDIO_CMDTIMEOUT);
 725:Drivers/STM32F4xx_HAL_Driver/Src/stm32f4xx_ll_sdmmc.c **** 
 726:Drivers/STM32F4xx_HAL_Driver/Src/stm32f4xx_ll_sdmmc.c ****   return errorstate;
 727:Drivers/STM32F4xx_HAL_Driver/Src/stm32f4xx_ll_sdmmc.c **** }
 728:Drivers/STM32F4xx_HAL_Driver/Src/stm32f4xx_ll_sdmmc.c **** 
 729:Drivers/STM32F4xx_HAL_Driver/Src/stm32f4xx_ll_sdmmc.c **** /**
 730:Drivers/STM32F4xx_HAL_Driver/Src/stm32f4xx_ll_sdmmc.c ****   * @brief  Send the Erase command and check the response
 731:Drivers/STM32F4xx_HAL_Driver/Src/stm32f4xx_ll_sdmmc.c ****   * @param  SDIOx: Pointer to SDIO register base 
 732:Drivers/STM32F4xx_HAL_Driver/Src/stm32f4xx_ll_sdmmc.c ****   * @retval HAL status
 733:Drivers/STM32F4xx_HAL_Driver/Src/stm32f4xx_ll_sdmmc.c ****   */
 734:Drivers/STM32F4xx_HAL_Driver/Src/stm32f4xx_ll_sdmmc.c **** uint32_t SDMMC_CmdErase(SDIO_TypeDef *SDIOx)
 735:Drivers/STM32F4xx_HAL_Driver/Src/stm32f4xx_ll_sdmmc.c **** {
 736:Drivers/STM32F4xx_HAL_Driver/Src/stm32f4xx_ll_sdmmc.c ****   SDIO_CmdInitTypeDef  sdmmc_cmdinit;
 737:Drivers/STM32F4xx_HAL_Driver/Src/stm32f4xx_ll_sdmmc.c ****   uint32_t errorstate;
 738:Drivers/STM32F4xx_HAL_Driver/Src/stm32f4xx_ll_sdmmc.c ****   
 739:Drivers/STM32F4xx_HAL_Driver/Src/stm32f4xx_ll_sdmmc.c ****   /* Set Block Size for Card */ 
 740:Drivers/STM32F4xx_HAL_Driver/Src/stm32f4xx_ll_sdmmc.c ****   sdmmc_cmdinit.Argument         = 0U;
 741:Drivers/STM32F4xx_HAL_Driver/Src/stm32f4xx_ll_sdmmc.c ****   sdmmc_cmdinit.CmdIndex         = SDMMC_CMD_ERASE;
 742:Drivers/STM32F4xx_HAL_Driver/Src/stm32f4xx_ll_sdmmc.c ****   sdmmc_cmdinit.Response         = SDIO_RESPONSE_SHORT;
 743:Drivers/STM32F4xx_HAL_Driver/Src/stm32f4xx_ll_sdmmc.c ****   sdmmc_cmdinit.WaitForInterrupt = SDIO_WAIT_NO;
 744:Drivers/STM32F4xx_HAL_Driver/Src/stm32f4xx_ll_sdmmc.c ****   sdmmc_cmdinit.CPSM             = SDIO_CPSM_ENABLE;
 745:Drivers/STM32F4xx_HAL_Driver/Src/stm32f4xx_ll_sdmmc.c ****   (void)SDIO_SendCommand(SDIOx, &sdmmc_cmdinit);
 746:Drivers/STM32F4xx_HAL_Driver/Src/stm32f4xx_ll_sdmmc.c ****   
 747:Drivers/STM32F4xx_HAL_Driver/Src/stm32f4xx_ll_sdmmc.c ****   /* Check for error conditions */
 748:Drivers/STM32F4xx_HAL_Driver/Src/stm32f4xx_ll_sdmmc.c ****   errorstate = SDMMC_GetCmdResp1(SDIOx, SDMMC_CMD_ERASE, SDIO_MAXERASETIMEOUT);
 749:Drivers/STM32F4xx_HAL_Driver/Src/stm32f4xx_ll_sdmmc.c **** 
 750:Drivers/STM32F4xx_HAL_Driver/Src/stm32f4xx_ll_sdmmc.c ****   return errorstate;
 751:Drivers/STM32F4xx_HAL_Driver/Src/stm32f4xx_ll_sdmmc.c **** }
 752:Drivers/STM32F4xx_HAL_Driver/Src/stm32f4xx_ll_sdmmc.c **** 
 753:Drivers/STM32F4xx_HAL_Driver/Src/stm32f4xx_ll_sdmmc.c **** /**
 754:Drivers/STM32F4xx_HAL_Driver/Src/stm32f4xx_ll_sdmmc.c ****   * @brief  Send the Stop Transfer command and check the response.
 755:Drivers/STM32F4xx_HAL_Driver/Src/stm32f4xx_ll_sdmmc.c ****   * @param  SDIOx: Pointer to SDIO register base 
 756:Drivers/STM32F4xx_HAL_Driver/Src/stm32f4xx_ll_sdmmc.c ****   * @retval HAL status
 757:Drivers/STM32F4xx_HAL_Driver/Src/stm32f4xx_ll_sdmmc.c ****   */
 758:Drivers/STM32F4xx_HAL_Driver/Src/stm32f4xx_ll_sdmmc.c **** uint32_t SDMMC_CmdStopTransfer(SDIO_TypeDef *SDIOx)
 759:Drivers/STM32F4xx_HAL_Driver/Src/stm32f4xx_ll_sdmmc.c **** {
 760:Drivers/STM32F4xx_HAL_Driver/Src/stm32f4xx_ll_sdmmc.c ****   SDIO_CmdInitTypeDef  sdmmc_cmdinit;
 761:Drivers/STM32F4xx_HAL_Driver/Src/stm32f4xx_ll_sdmmc.c ****   uint32_t errorstate;
 762:Drivers/STM32F4xx_HAL_Driver/Src/stm32f4xx_ll_sdmmc.c ****   
 763:Drivers/STM32F4xx_HAL_Driver/Src/stm32f4xx_ll_sdmmc.c ****   /* Send CMD12 STOP_TRANSMISSION  */
 764:Drivers/STM32F4xx_HAL_Driver/Src/stm32f4xx_ll_sdmmc.c ****   sdmmc_cmdinit.Argument         = 0U;
 765:Drivers/STM32F4xx_HAL_Driver/Src/stm32f4xx_ll_sdmmc.c ****   sdmmc_cmdinit.CmdIndex         = SDMMC_CMD_STOP_TRANSMISSION;
 766:Drivers/STM32F4xx_HAL_Driver/Src/stm32f4xx_ll_sdmmc.c ****   sdmmc_cmdinit.Response         = SDIO_RESPONSE_SHORT;
 767:Drivers/STM32F4xx_HAL_Driver/Src/stm32f4xx_ll_sdmmc.c ****   sdmmc_cmdinit.WaitForInterrupt = SDIO_WAIT_NO;
 768:Drivers/STM32F4xx_HAL_Driver/Src/stm32f4xx_ll_sdmmc.c ****   sdmmc_cmdinit.CPSM             = SDIO_CPSM_ENABLE;
 769:Drivers/STM32F4xx_HAL_Driver/Src/stm32f4xx_ll_sdmmc.c ****   (void)SDIO_SendCommand(SDIOx, &sdmmc_cmdinit);
 770:Drivers/STM32F4xx_HAL_Driver/Src/stm32f4xx_ll_sdmmc.c ****   
 771:Drivers/STM32F4xx_HAL_Driver/Src/stm32f4xx_ll_sdmmc.c ****   /* Check for error conditions */
 772:Drivers/STM32F4xx_HAL_Driver/Src/stm32f4xx_ll_sdmmc.c ****   errorstate = SDMMC_GetCmdResp1(SDIOx, SDMMC_CMD_STOP_TRANSMISSION, SDIO_STOPTRANSFERTIMEOUT);
 773:Drivers/STM32F4xx_HAL_Driver/Src/stm32f4xx_ll_sdmmc.c **** 
ARM GAS  C:\Users\Cihat\AppData\Local\Temp\ccTPXPIa.s 			page 15


 774:Drivers/STM32F4xx_HAL_Driver/Src/stm32f4xx_ll_sdmmc.c ****   return errorstate;
 775:Drivers/STM32F4xx_HAL_Driver/Src/stm32f4xx_ll_sdmmc.c **** }
 776:Drivers/STM32F4xx_HAL_Driver/Src/stm32f4xx_ll_sdmmc.c **** 
 777:Drivers/STM32F4xx_HAL_Driver/Src/stm32f4xx_ll_sdmmc.c **** /**
 778:Drivers/STM32F4xx_HAL_Driver/Src/stm32f4xx_ll_sdmmc.c ****   * @brief  Send the Select Deselect command and check the response.
 779:Drivers/STM32F4xx_HAL_Driver/Src/stm32f4xx_ll_sdmmc.c ****   * @param  SDIOx: Pointer to SDIO register base 
 780:Drivers/STM32F4xx_HAL_Driver/Src/stm32f4xx_ll_sdmmc.c ****   * @param  addr: Address of the card to be selected  
 781:Drivers/STM32F4xx_HAL_Driver/Src/stm32f4xx_ll_sdmmc.c ****   * @retval HAL status
 782:Drivers/STM32F4xx_HAL_Driver/Src/stm32f4xx_ll_sdmmc.c ****   */
 783:Drivers/STM32F4xx_HAL_Driver/Src/stm32f4xx_ll_sdmmc.c **** uint32_t SDMMC_CmdSelDesel(SDIO_TypeDef *SDIOx, uint64_t Addr)
 784:Drivers/STM32F4xx_HAL_Driver/Src/stm32f4xx_ll_sdmmc.c **** {
 785:Drivers/STM32F4xx_HAL_Driver/Src/stm32f4xx_ll_sdmmc.c ****   SDIO_CmdInitTypeDef  sdmmc_cmdinit;
 786:Drivers/STM32F4xx_HAL_Driver/Src/stm32f4xx_ll_sdmmc.c ****   uint32_t errorstate;
 787:Drivers/STM32F4xx_HAL_Driver/Src/stm32f4xx_ll_sdmmc.c ****   
 788:Drivers/STM32F4xx_HAL_Driver/Src/stm32f4xx_ll_sdmmc.c ****   /* Send CMD7 SDMMC_SEL_DESEL_CARD */
 789:Drivers/STM32F4xx_HAL_Driver/Src/stm32f4xx_ll_sdmmc.c ****   sdmmc_cmdinit.Argument         = (uint32_t)Addr;
 790:Drivers/STM32F4xx_HAL_Driver/Src/stm32f4xx_ll_sdmmc.c ****   sdmmc_cmdinit.CmdIndex         = SDMMC_CMD_SEL_DESEL_CARD;
 791:Drivers/STM32F4xx_HAL_Driver/Src/stm32f4xx_ll_sdmmc.c ****   sdmmc_cmdinit.Response         = SDIO_RESPONSE_SHORT;
 792:Drivers/STM32F4xx_HAL_Driver/Src/stm32f4xx_ll_sdmmc.c ****   sdmmc_cmdinit.WaitForInterrupt = SDIO_WAIT_NO;
 793:Drivers/STM32F4xx_HAL_Driver/Src/stm32f4xx_ll_sdmmc.c ****   sdmmc_cmdinit.CPSM             = SDIO_CPSM_ENABLE;
 794:Drivers/STM32F4xx_HAL_Driver/Src/stm32f4xx_ll_sdmmc.c ****   (void)SDIO_SendCommand(SDIOx, &sdmmc_cmdinit);
 795:Drivers/STM32F4xx_HAL_Driver/Src/stm32f4xx_ll_sdmmc.c ****   
 796:Drivers/STM32F4xx_HAL_Driver/Src/stm32f4xx_ll_sdmmc.c ****   /* Check for error conditions */
 797:Drivers/STM32F4xx_HAL_Driver/Src/stm32f4xx_ll_sdmmc.c ****   errorstate = SDMMC_GetCmdResp1(SDIOx, SDMMC_CMD_SEL_DESEL_CARD, SDIO_CMDTIMEOUT);
 798:Drivers/STM32F4xx_HAL_Driver/Src/stm32f4xx_ll_sdmmc.c **** 
 799:Drivers/STM32F4xx_HAL_Driver/Src/stm32f4xx_ll_sdmmc.c ****   return errorstate;
 800:Drivers/STM32F4xx_HAL_Driver/Src/stm32f4xx_ll_sdmmc.c **** }
 801:Drivers/STM32F4xx_HAL_Driver/Src/stm32f4xx_ll_sdmmc.c **** 
 802:Drivers/STM32F4xx_HAL_Driver/Src/stm32f4xx_ll_sdmmc.c **** /**
 803:Drivers/STM32F4xx_HAL_Driver/Src/stm32f4xx_ll_sdmmc.c ****   * @brief  Send the Go Idle State command and check the response.
 804:Drivers/STM32F4xx_HAL_Driver/Src/stm32f4xx_ll_sdmmc.c ****   * @param  SDIOx: Pointer to SDIO register base 
 805:Drivers/STM32F4xx_HAL_Driver/Src/stm32f4xx_ll_sdmmc.c ****   * @retval HAL status
 806:Drivers/STM32F4xx_HAL_Driver/Src/stm32f4xx_ll_sdmmc.c ****   */
 807:Drivers/STM32F4xx_HAL_Driver/Src/stm32f4xx_ll_sdmmc.c **** uint32_t SDMMC_CmdGoIdleState(SDIO_TypeDef *SDIOx)
 808:Drivers/STM32F4xx_HAL_Driver/Src/stm32f4xx_ll_sdmmc.c **** {
 809:Drivers/STM32F4xx_HAL_Driver/Src/stm32f4xx_ll_sdmmc.c ****   SDIO_CmdInitTypeDef  sdmmc_cmdinit;
 810:Drivers/STM32F4xx_HAL_Driver/Src/stm32f4xx_ll_sdmmc.c ****   uint32_t errorstate;
 811:Drivers/STM32F4xx_HAL_Driver/Src/stm32f4xx_ll_sdmmc.c ****   
 812:Drivers/STM32F4xx_HAL_Driver/Src/stm32f4xx_ll_sdmmc.c ****   sdmmc_cmdinit.Argument         = 0U;
 813:Drivers/STM32F4xx_HAL_Driver/Src/stm32f4xx_ll_sdmmc.c ****   sdmmc_cmdinit.CmdIndex         = SDMMC_CMD_GO_IDLE_STATE;
 814:Drivers/STM32F4xx_HAL_Driver/Src/stm32f4xx_ll_sdmmc.c ****   sdmmc_cmdinit.Response         = SDIO_RESPONSE_NO;
 815:Drivers/STM32F4xx_HAL_Driver/Src/stm32f4xx_ll_sdmmc.c ****   sdmmc_cmdinit.WaitForInterrupt = SDIO_WAIT_NO;
 816:Drivers/STM32F4xx_HAL_Driver/Src/stm32f4xx_ll_sdmmc.c ****   sdmmc_cmdinit.CPSM             = SDIO_CPSM_ENABLE;
 817:Drivers/STM32F4xx_HAL_Driver/Src/stm32f4xx_ll_sdmmc.c ****   (void)SDIO_SendCommand(SDIOx, &sdmmc_cmdinit);
 818:Drivers/STM32F4xx_HAL_Driver/Src/stm32f4xx_ll_sdmmc.c ****   
 819:Drivers/STM32F4xx_HAL_Driver/Src/stm32f4xx_ll_sdmmc.c ****   /* Check for error conditions */
 820:Drivers/STM32F4xx_HAL_Driver/Src/stm32f4xx_ll_sdmmc.c ****   errorstate = SDMMC_GetCmdError(SDIOx);
 821:Drivers/STM32F4xx_HAL_Driver/Src/stm32f4xx_ll_sdmmc.c **** 
 822:Drivers/STM32F4xx_HAL_Driver/Src/stm32f4xx_ll_sdmmc.c ****   return errorstate;
 823:Drivers/STM32F4xx_HAL_Driver/Src/stm32f4xx_ll_sdmmc.c **** }
 824:Drivers/STM32F4xx_HAL_Driver/Src/stm32f4xx_ll_sdmmc.c **** 
 825:Drivers/STM32F4xx_HAL_Driver/Src/stm32f4xx_ll_sdmmc.c **** /**
 826:Drivers/STM32F4xx_HAL_Driver/Src/stm32f4xx_ll_sdmmc.c ****   * @brief  Send the Operating Condition command and check the response.
 827:Drivers/STM32F4xx_HAL_Driver/Src/stm32f4xx_ll_sdmmc.c ****   * @param  SDIOx: Pointer to SDIO register base 
 828:Drivers/STM32F4xx_HAL_Driver/Src/stm32f4xx_ll_sdmmc.c ****   * @retval HAL status
 829:Drivers/STM32F4xx_HAL_Driver/Src/stm32f4xx_ll_sdmmc.c ****   */
 830:Drivers/STM32F4xx_HAL_Driver/Src/stm32f4xx_ll_sdmmc.c **** uint32_t SDMMC_CmdOperCond(SDIO_TypeDef *SDIOx)
ARM GAS  C:\Users\Cihat\AppData\Local\Temp\ccTPXPIa.s 			page 16


 831:Drivers/STM32F4xx_HAL_Driver/Src/stm32f4xx_ll_sdmmc.c **** {
 832:Drivers/STM32F4xx_HAL_Driver/Src/stm32f4xx_ll_sdmmc.c ****   SDIO_CmdInitTypeDef  sdmmc_cmdinit;
 833:Drivers/STM32F4xx_HAL_Driver/Src/stm32f4xx_ll_sdmmc.c ****   uint32_t errorstate;
 834:Drivers/STM32F4xx_HAL_Driver/Src/stm32f4xx_ll_sdmmc.c ****   
 835:Drivers/STM32F4xx_HAL_Driver/Src/stm32f4xx_ll_sdmmc.c ****   /* Send CMD8 to verify SD card interface operating condition */
 836:Drivers/STM32F4xx_HAL_Driver/Src/stm32f4xx_ll_sdmmc.c ****   /* Argument: - [31:12]: Reserved (shall be set to '0')
 837:Drivers/STM32F4xx_HAL_Driver/Src/stm32f4xx_ll_sdmmc.c ****   - [11:8]: Supply Voltage (VHS) 0x1 (Range: 2.7-3.6 V)
 838:Drivers/STM32F4xx_HAL_Driver/Src/stm32f4xx_ll_sdmmc.c ****   - [7:0]: Check Pattern (recommended 0xAA) */
 839:Drivers/STM32F4xx_HAL_Driver/Src/stm32f4xx_ll_sdmmc.c ****   /* CMD Response: R7 */
 840:Drivers/STM32F4xx_HAL_Driver/Src/stm32f4xx_ll_sdmmc.c ****   sdmmc_cmdinit.Argument         = SDMMC_CHECK_PATTERN;
 841:Drivers/STM32F4xx_HAL_Driver/Src/stm32f4xx_ll_sdmmc.c ****   sdmmc_cmdinit.CmdIndex         = SDMMC_CMD_HS_SEND_EXT_CSD;
 842:Drivers/STM32F4xx_HAL_Driver/Src/stm32f4xx_ll_sdmmc.c ****   sdmmc_cmdinit.Response         = SDIO_RESPONSE_SHORT;
 843:Drivers/STM32F4xx_HAL_Driver/Src/stm32f4xx_ll_sdmmc.c ****   sdmmc_cmdinit.WaitForInterrupt = SDIO_WAIT_NO;
 844:Drivers/STM32F4xx_HAL_Driver/Src/stm32f4xx_ll_sdmmc.c ****   sdmmc_cmdinit.CPSM             = SDIO_CPSM_ENABLE;
 845:Drivers/STM32F4xx_HAL_Driver/Src/stm32f4xx_ll_sdmmc.c ****   (void)SDIO_SendCommand(SDIOx, &sdmmc_cmdinit);
 846:Drivers/STM32F4xx_HAL_Driver/Src/stm32f4xx_ll_sdmmc.c ****   
 847:Drivers/STM32F4xx_HAL_Driver/Src/stm32f4xx_ll_sdmmc.c ****   /* Check for error conditions */
 848:Drivers/STM32F4xx_HAL_Driver/Src/stm32f4xx_ll_sdmmc.c ****   errorstate = SDMMC_GetCmdResp7(SDIOx);
 849:Drivers/STM32F4xx_HAL_Driver/Src/stm32f4xx_ll_sdmmc.c **** 
 850:Drivers/STM32F4xx_HAL_Driver/Src/stm32f4xx_ll_sdmmc.c ****   return errorstate;
 851:Drivers/STM32F4xx_HAL_Driver/Src/stm32f4xx_ll_sdmmc.c **** }
 852:Drivers/STM32F4xx_HAL_Driver/Src/stm32f4xx_ll_sdmmc.c **** 
 853:Drivers/STM32F4xx_HAL_Driver/Src/stm32f4xx_ll_sdmmc.c **** /**
 854:Drivers/STM32F4xx_HAL_Driver/Src/stm32f4xx_ll_sdmmc.c ****   * @brief  Send the Application command to verify that that the next command 
 855:Drivers/STM32F4xx_HAL_Driver/Src/stm32f4xx_ll_sdmmc.c ****   *         is an application specific com-mand rather than a standard command
 856:Drivers/STM32F4xx_HAL_Driver/Src/stm32f4xx_ll_sdmmc.c ****   *         and check the response.
 857:Drivers/STM32F4xx_HAL_Driver/Src/stm32f4xx_ll_sdmmc.c ****   * @param  SDIOx: Pointer to SDIO register base 
 858:Drivers/STM32F4xx_HAL_Driver/Src/stm32f4xx_ll_sdmmc.c ****   * @param  Argument: Command Argument 
 859:Drivers/STM32F4xx_HAL_Driver/Src/stm32f4xx_ll_sdmmc.c ****   * @retval HAL status
 860:Drivers/STM32F4xx_HAL_Driver/Src/stm32f4xx_ll_sdmmc.c ****   */
 861:Drivers/STM32F4xx_HAL_Driver/Src/stm32f4xx_ll_sdmmc.c **** uint32_t SDMMC_CmdAppCommand(SDIO_TypeDef *SDIOx, uint32_t Argument)
 862:Drivers/STM32F4xx_HAL_Driver/Src/stm32f4xx_ll_sdmmc.c **** {
 863:Drivers/STM32F4xx_HAL_Driver/Src/stm32f4xx_ll_sdmmc.c ****   SDIO_CmdInitTypeDef  sdmmc_cmdinit;
 864:Drivers/STM32F4xx_HAL_Driver/Src/stm32f4xx_ll_sdmmc.c ****   uint32_t errorstate;
 865:Drivers/STM32F4xx_HAL_Driver/Src/stm32f4xx_ll_sdmmc.c ****   
 866:Drivers/STM32F4xx_HAL_Driver/Src/stm32f4xx_ll_sdmmc.c ****   sdmmc_cmdinit.Argument         = (uint32_t)Argument;
 867:Drivers/STM32F4xx_HAL_Driver/Src/stm32f4xx_ll_sdmmc.c ****   sdmmc_cmdinit.CmdIndex         = SDMMC_CMD_APP_CMD;
 868:Drivers/STM32F4xx_HAL_Driver/Src/stm32f4xx_ll_sdmmc.c ****   sdmmc_cmdinit.Response         = SDIO_RESPONSE_SHORT;
 869:Drivers/STM32F4xx_HAL_Driver/Src/stm32f4xx_ll_sdmmc.c ****   sdmmc_cmdinit.WaitForInterrupt = SDIO_WAIT_NO;
 870:Drivers/STM32F4xx_HAL_Driver/Src/stm32f4xx_ll_sdmmc.c ****   sdmmc_cmdinit.CPSM             = SDIO_CPSM_ENABLE;
 871:Drivers/STM32F4xx_HAL_Driver/Src/stm32f4xx_ll_sdmmc.c ****   (void)SDIO_SendCommand(SDIOx, &sdmmc_cmdinit);
 872:Drivers/STM32F4xx_HAL_Driver/Src/stm32f4xx_ll_sdmmc.c ****   
 873:Drivers/STM32F4xx_HAL_Driver/Src/stm32f4xx_ll_sdmmc.c ****   /* Check for error conditions */
 874:Drivers/STM32F4xx_HAL_Driver/Src/stm32f4xx_ll_sdmmc.c ****   /* If there is a HAL_ERROR, it is a MMC card, else
 875:Drivers/STM32F4xx_HAL_Driver/Src/stm32f4xx_ll_sdmmc.c ****   it is a SD card: SD card 2.0 (voltage range mismatch)
 876:Drivers/STM32F4xx_HAL_Driver/Src/stm32f4xx_ll_sdmmc.c ****      or SD card 1.x */
 877:Drivers/STM32F4xx_HAL_Driver/Src/stm32f4xx_ll_sdmmc.c ****   errorstate = SDMMC_GetCmdResp1(SDIOx, SDMMC_CMD_APP_CMD, SDIO_CMDTIMEOUT);
 878:Drivers/STM32F4xx_HAL_Driver/Src/stm32f4xx_ll_sdmmc.c **** 
 879:Drivers/STM32F4xx_HAL_Driver/Src/stm32f4xx_ll_sdmmc.c ****   return errorstate;
 880:Drivers/STM32F4xx_HAL_Driver/Src/stm32f4xx_ll_sdmmc.c **** }
 881:Drivers/STM32F4xx_HAL_Driver/Src/stm32f4xx_ll_sdmmc.c **** 
 882:Drivers/STM32F4xx_HAL_Driver/Src/stm32f4xx_ll_sdmmc.c **** /**
 883:Drivers/STM32F4xx_HAL_Driver/Src/stm32f4xx_ll_sdmmc.c ****   * @brief  Send the command asking the accessed card to send its operating 
 884:Drivers/STM32F4xx_HAL_Driver/Src/stm32f4xx_ll_sdmmc.c ****   *         condition register (OCR)
 885:Drivers/STM32F4xx_HAL_Driver/Src/stm32f4xx_ll_sdmmc.c ****   * @param  SDIOx: Pointer to SDIO register base 
 886:Drivers/STM32F4xx_HAL_Driver/Src/stm32f4xx_ll_sdmmc.c ****   * @param  Argument: Command Argument
 887:Drivers/STM32F4xx_HAL_Driver/Src/stm32f4xx_ll_sdmmc.c ****   * @retval HAL status
ARM GAS  C:\Users\Cihat\AppData\Local\Temp\ccTPXPIa.s 			page 17


 888:Drivers/STM32F4xx_HAL_Driver/Src/stm32f4xx_ll_sdmmc.c ****   */
 889:Drivers/STM32F4xx_HAL_Driver/Src/stm32f4xx_ll_sdmmc.c **** uint32_t SDMMC_CmdAppOperCommand(SDIO_TypeDef *SDIOx, uint32_t Argument)
 890:Drivers/STM32F4xx_HAL_Driver/Src/stm32f4xx_ll_sdmmc.c **** {
 891:Drivers/STM32F4xx_HAL_Driver/Src/stm32f4xx_ll_sdmmc.c ****   SDIO_CmdInitTypeDef  sdmmc_cmdinit;
 892:Drivers/STM32F4xx_HAL_Driver/Src/stm32f4xx_ll_sdmmc.c ****   uint32_t errorstate;
 893:Drivers/STM32F4xx_HAL_Driver/Src/stm32f4xx_ll_sdmmc.c ****   
 894:Drivers/STM32F4xx_HAL_Driver/Src/stm32f4xx_ll_sdmmc.c ****   sdmmc_cmdinit.Argument         = SDMMC_VOLTAGE_WINDOW_SD | Argument;
 895:Drivers/STM32F4xx_HAL_Driver/Src/stm32f4xx_ll_sdmmc.c ****   sdmmc_cmdinit.CmdIndex         = SDMMC_CMD_SD_APP_OP_COND;
 896:Drivers/STM32F4xx_HAL_Driver/Src/stm32f4xx_ll_sdmmc.c ****   sdmmc_cmdinit.Response         = SDIO_RESPONSE_SHORT;
 897:Drivers/STM32F4xx_HAL_Driver/Src/stm32f4xx_ll_sdmmc.c ****   sdmmc_cmdinit.WaitForInterrupt = SDIO_WAIT_NO;
 898:Drivers/STM32F4xx_HAL_Driver/Src/stm32f4xx_ll_sdmmc.c ****   sdmmc_cmdinit.CPSM             = SDIO_CPSM_ENABLE;
 899:Drivers/STM32F4xx_HAL_Driver/Src/stm32f4xx_ll_sdmmc.c ****   (void)SDIO_SendCommand(SDIOx, &sdmmc_cmdinit);
 900:Drivers/STM32F4xx_HAL_Driver/Src/stm32f4xx_ll_sdmmc.c ****   
 901:Drivers/STM32F4xx_HAL_Driver/Src/stm32f4xx_ll_sdmmc.c ****   /* Check for error conditions */
 902:Drivers/STM32F4xx_HAL_Driver/Src/stm32f4xx_ll_sdmmc.c ****   errorstate = SDMMC_GetCmdResp3(SDIOx);
 903:Drivers/STM32F4xx_HAL_Driver/Src/stm32f4xx_ll_sdmmc.c **** 
 904:Drivers/STM32F4xx_HAL_Driver/Src/stm32f4xx_ll_sdmmc.c ****   return errorstate;
 905:Drivers/STM32F4xx_HAL_Driver/Src/stm32f4xx_ll_sdmmc.c **** }
 906:Drivers/STM32F4xx_HAL_Driver/Src/stm32f4xx_ll_sdmmc.c **** 
 907:Drivers/STM32F4xx_HAL_Driver/Src/stm32f4xx_ll_sdmmc.c **** /**
 908:Drivers/STM32F4xx_HAL_Driver/Src/stm32f4xx_ll_sdmmc.c ****   * @brief  Send the Bus Width command and check the response.
 909:Drivers/STM32F4xx_HAL_Driver/Src/stm32f4xx_ll_sdmmc.c ****   * @param  SDIOx: Pointer to SDIO register base 
 910:Drivers/STM32F4xx_HAL_Driver/Src/stm32f4xx_ll_sdmmc.c ****   * @param  BusWidth: BusWidth
 911:Drivers/STM32F4xx_HAL_Driver/Src/stm32f4xx_ll_sdmmc.c ****   * @retval HAL status
 912:Drivers/STM32F4xx_HAL_Driver/Src/stm32f4xx_ll_sdmmc.c ****   */
 913:Drivers/STM32F4xx_HAL_Driver/Src/stm32f4xx_ll_sdmmc.c **** uint32_t SDMMC_CmdBusWidth(SDIO_TypeDef *SDIOx, uint32_t BusWidth)
 914:Drivers/STM32F4xx_HAL_Driver/Src/stm32f4xx_ll_sdmmc.c **** {
 915:Drivers/STM32F4xx_HAL_Driver/Src/stm32f4xx_ll_sdmmc.c ****   SDIO_CmdInitTypeDef  sdmmc_cmdinit;
 916:Drivers/STM32F4xx_HAL_Driver/Src/stm32f4xx_ll_sdmmc.c ****   uint32_t errorstate;
 917:Drivers/STM32F4xx_HAL_Driver/Src/stm32f4xx_ll_sdmmc.c ****   
 918:Drivers/STM32F4xx_HAL_Driver/Src/stm32f4xx_ll_sdmmc.c ****   sdmmc_cmdinit.Argument         = (uint32_t)BusWidth;
 919:Drivers/STM32F4xx_HAL_Driver/Src/stm32f4xx_ll_sdmmc.c ****   sdmmc_cmdinit.CmdIndex         = SDMMC_CMD_APP_SD_SET_BUSWIDTH;
 920:Drivers/STM32F4xx_HAL_Driver/Src/stm32f4xx_ll_sdmmc.c ****   sdmmc_cmdinit.Response         = SDIO_RESPONSE_SHORT;
 921:Drivers/STM32F4xx_HAL_Driver/Src/stm32f4xx_ll_sdmmc.c ****   sdmmc_cmdinit.WaitForInterrupt = SDIO_WAIT_NO;
 922:Drivers/STM32F4xx_HAL_Driver/Src/stm32f4xx_ll_sdmmc.c ****   sdmmc_cmdinit.CPSM             = SDIO_CPSM_ENABLE;
 923:Drivers/STM32F4xx_HAL_Driver/Src/stm32f4xx_ll_sdmmc.c ****   (void)SDIO_SendCommand(SDIOx, &sdmmc_cmdinit);
 924:Drivers/STM32F4xx_HAL_Driver/Src/stm32f4xx_ll_sdmmc.c ****   
 925:Drivers/STM32F4xx_HAL_Driver/Src/stm32f4xx_ll_sdmmc.c ****   /* Check for error conditions */
 926:Drivers/STM32F4xx_HAL_Driver/Src/stm32f4xx_ll_sdmmc.c ****   errorstate = SDMMC_GetCmdResp1(SDIOx, SDMMC_CMD_APP_SD_SET_BUSWIDTH, SDIO_CMDTIMEOUT);
 927:Drivers/STM32F4xx_HAL_Driver/Src/stm32f4xx_ll_sdmmc.c **** 
 928:Drivers/STM32F4xx_HAL_Driver/Src/stm32f4xx_ll_sdmmc.c ****   return errorstate;
 929:Drivers/STM32F4xx_HAL_Driver/Src/stm32f4xx_ll_sdmmc.c **** }
 930:Drivers/STM32F4xx_HAL_Driver/Src/stm32f4xx_ll_sdmmc.c **** 
 931:Drivers/STM32F4xx_HAL_Driver/Src/stm32f4xx_ll_sdmmc.c **** /**
 932:Drivers/STM32F4xx_HAL_Driver/Src/stm32f4xx_ll_sdmmc.c ****   * @brief  Send the Send SCR command and check the response.
 933:Drivers/STM32F4xx_HAL_Driver/Src/stm32f4xx_ll_sdmmc.c ****   * @param  SDIOx: Pointer to SDIO register base 
 934:Drivers/STM32F4xx_HAL_Driver/Src/stm32f4xx_ll_sdmmc.c ****   * @retval HAL status
 935:Drivers/STM32F4xx_HAL_Driver/Src/stm32f4xx_ll_sdmmc.c ****   */
 936:Drivers/STM32F4xx_HAL_Driver/Src/stm32f4xx_ll_sdmmc.c **** uint32_t SDMMC_CmdSendSCR(SDIO_TypeDef *SDIOx)
 937:Drivers/STM32F4xx_HAL_Driver/Src/stm32f4xx_ll_sdmmc.c **** {
 938:Drivers/STM32F4xx_HAL_Driver/Src/stm32f4xx_ll_sdmmc.c ****   SDIO_CmdInitTypeDef  sdmmc_cmdinit;
 939:Drivers/STM32F4xx_HAL_Driver/Src/stm32f4xx_ll_sdmmc.c ****   uint32_t errorstate;
 940:Drivers/STM32F4xx_HAL_Driver/Src/stm32f4xx_ll_sdmmc.c ****   
 941:Drivers/STM32F4xx_HAL_Driver/Src/stm32f4xx_ll_sdmmc.c ****   /* Send CMD51 SD_APP_SEND_SCR */
 942:Drivers/STM32F4xx_HAL_Driver/Src/stm32f4xx_ll_sdmmc.c ****   sdmmc_cmdinit.Argument         = 0U;
 943:Drivers/STM32F4xx_HAL_Driver/Src/stm32f4xx_ll_sdmmc.c ****   sdmmc_cmdinit.CmdIndex         = SDMMC_CMD_SD_APP_SEND_SCR;
 944:Drivers/STM32F4xx_HAL_Driver/Src/stm32f4xx_ll_sdmmc.c ****   sdmmc_cmdinit.Response         = SDIO_RESPONSE_SHORT;
ARM GAS  C:\Users\Cihat\AppData\Local\Temp\ccTPXPIa.s 			page 18


 945:Drivers/STM32F4xx_HAL_Driver/Src/stm32f4xx_ll_sdmmc.c ****   sdmmc_cmdinit.WaitForInterrupt = SDIO_WAIT_NO;
 946:Drivers/STM32F4xx_HAL_Driver/Src/stm32f4xx_ll_sdmmc.c ****   sdmmc_cmdinit.CPSM             = SDIO_CPSM_ENABLE;
 947:Drivers/STM32F4xx_HAL_Driver/Src/stm32f4xx_ll_sdmmc.c ****   (void)SDIO_SendCommand(SDIOx, &sdmmc_cmdinit);
 948:Drivers/STM32F4xx_HAL_Driver/Src/stm32f4xx_ll_sdmmc.c ****   
 949:Drivers/STM32F4xx_HAL_Driver/Src/stm32f4xx_ll_sdmmc.c ****   /* Check for error conditions */
 950:Drivers/STM32F4xx_HAL_Driver/Src/stm32f4xx_ll_sdmmc.c ****   errorstate = SDMMC_GetCmdResp1(SDIOx, SDMMC_CMD_SD_APP_SEND_SCR, SDIO_CMDTIMEOUT);
 951:Drivers/STM32F4xx_HAL_Driver/Src/stm32f4xx_ll_sdmmc.c **** 
 952:Drivers/STM32F4xx_HAL_Driver/Src/stm32f4xx_ll_sdmmc.c ****   return errorstate;
 953:Drivers/STM32F4xx_HAL_Driver/Src/stm32f4xx_ll_sdmmc.c **** }
 954:Drivers/STM32F4xx_HAL_Driver/Src/stm32f4xx_ll_sdmmc.c **** 
 955:Drivers/STM32F4xx_HAL_Driver/Src/stm32f4xx_ll_sdmmc.c **** /**
 956:Drivers/STM32F4xx_HAL_Driver/Src/stm32f4xx_ll_sdmmc.c ****   * @brief  Send the Send CID command and check the response.
 957:Drivers/STM32F4xx_HAL_Driver/Src/stm32f4xx_ll_sdmmc.c ****   * @param  SDIOx: Pointer to SDIO register base 
 958:Drivers/STM32F4xx_HAL_Driver/Src/stm32f4xx_ll_sdmmc.c ****   * @retval HAL status
 959:Drivers/STM32F4xx_HAL_Driver/Src/stm32f4xx_ll_sdmmc.c ****   */
 960:Drivers/STM32F4xx_HAL_Driver/Src/stm32f4xx_ll_sdmmc.c **** uint32_t SDMMC_CmdSendCID(SDIO_TypeDef *SDIOx)
 961:Drivers/STM32F4xx_HAL_Driver/Src/stm32f4xx_ll_sdmmc.c **** {
 962:Drivers/STM32F4xx_HAL_Driver/Src/stm32f4xx_ll_sdmmc.c ****   SDIO_CmdInitTypeDef  sdmmc_cmdinit;
 963:Drivers/STM32F4xx_HAL_Driver/Src/stm32f4xx_ll_sdmmc.c ****   uint32_t errorstate;
 964:Drivers/STM32F4xx_HAL_Driver/Src/stm32f4xx_ll_sdmmc.c ****   
 965:Drivers/STM32F4xx_HAL_Driver/Src/stm32f4xx_ll_sdmmc.c ****   /* Send CMD2 ALL_SEND_CID */
 966:Drivers/STM32F4xx_HAL_Driver/Src/stm32f4xx_ll_sdmmc.c ****   sdmmc_cmdinit.Argument         = 0U;
 967:Drivers/STM32F4xx_HAL_Driver/Src/stm32f4xx_ll_sdmmc.c ****   sdmmc_cmdinit.CmdIndex         = SDMMC_CMD_ALL_SEND_CID;
 968:Drivers/STM32F4xx_HAL_Driver/Src/stm32f4xx_ll_sdmmc.c ****   sdmmc_cmdinit.Response         = SDIO_RESPONSE_LONG;
 969:Drivers/STM32F4xx_HAL_Driver/Src/stm32f4xx_ll_sdmmc.c ****   sdmmc_cmdinit.WaitForInterrupt = SDIO_WAIT_NO;
 970:Drivers/STM32F4xx_HAL_Driver/Src/stm32f4xx_ll_sdmmc.c ****   sdmmc_cmdinit.CPSM             = SDIO_CPSM_ENABLE;
 971:Drivers/STM32F4xx_HAL_Driver/Src/stm32f4xx_ll_sdmmc.c ****   (void)SDIO_SendCommand(SDIOx, &sdmmc_cmdinit);
 972:Drivers/STM32F4xx_HAL_Driver/Src/stm32f4xx_ll_sdmmc.c ****   
 973:Drivers/STM32F4xx_HAL_Driver/Src/stm32f4xx_ll_sdmmc.c ****   /* Check for error conditions */
 974:Drivers/STM32F4xx_HAL_Driver/Src/stm32f4xx_ll_sdmmc.c ****   errorstate = SDMMC_GetCmdResp2(SDIOx);
 975:Drivers/STM32F4xx_HAL_Driver/Src/stm32f4xx_ll_sdmmc.c **** 
 976:Drivers/STM32F4xx_HAL_Driver/Src/stm32f4xx_ll_sdmmc.c ****   return errorstate;
 977:Drivers/STM32F4xx_HAL_Driver/Src/stm32f4xx_ll_sdmmc.c **** }
 978:Drivers/STM32F4xx_HAL_Driver/Src/stm32f4xx_ll_sdmmc.c **** 
 979:Drivers/STM32F4xx_HAL_Driver/Src/stm32f4xx_ll_sdmmc.c **** /**
 980:Drivers/STM32F4xx_HAL_Driver/Src/stm32f4xx_ll_sdmmc.c ****   * @brief  Send the Send CSD command and check the response.
 981:Drivers/STM32F4xx_HAL_Driver/Src/stm32f4xx_ll_sdmmc.c ****   * @param  SDIOx: Pointer to SDIO register base 
 982:Drivers/STM32F4xx_HAL_Driver/Src/stm32f4xx_ll_sdmmc.c ****   * @param  Argument: Command Argument
 983:Drivers/STM32F4xx_HAL_Driver/Src/stm32f4xx_ll_sdmmc.c ****   * @retval HAL status
 984:Drivers/STM32F4xx_HAL_Driver/Src/stm32f4xx_ll_sdmmc.c ****   */
 985:Drivers/STM32F4xx_HAL_Driver/Src/stm32f4xx_ll_sdmmc.c **** uint32_t SDMMC_CmdSendCSD(SDIO_TypeDef *SDIOx, uint32_t Argument)
 986:Drivers/STM32F4xx_HAL_Driver/Src/stm32f4xx_ll_sdmmc.c **** {
 987:Drivers/STM32F4xx_HAL_Driver/Src/stm32f4xx_ll_sdmmc.c ****   SDIO_CmdInitTypeDef  sdmmc_cmdinit;
 988:Drivers/STM32F4xx_HAL_Driver/Src/stm32f4xx_ll_sdmmc.c ****   uint32_t errorstate;
 989:Drivers/STM32F4xx_HAL_Driver/Src/stm32f4xx_ll_sdmmc.c ****   
 990:Drivers/STM32F4xx_HAL_Driver/Src/stm32f4xx_ll_sdmmc.c ****   /* Send CMD9 SEND_CSD */
 991:Drivers/STM32F4xx_HAL_Driver/Src/stm32f4xx_ll_sdmmc.c ****   sdmmc_cmdinit.Argument         = Argument;
 992:Drivers/STM32F4xx_HAL_Driver/Src/stm32f4xx_ll_sdmmc.c ****   sdmmc_cmdinit.CmdIndex         = SDMMC_CMD_SEND_CSD;
 993:Drivers/STM32F4xx_HAL_Driver/Src/stm32f4xx_ll_sdmmc.c ****   sdmmc_cmdinit.Response         = SDIO_RESPONSE_LONG;
 994:Drivers/STM32F4xx_HAL_Driver/Src/stm32f4xx_ll_sdmmc.c ****   sdmmc_cmdinit.WaitForInterrupt = SDIO_WAIT_NO;
 995:Drivers/STM32F4xx_HAL_Driver/Src/stm32f4xx_ll_sdmmc.c ****   sdmmc_cmdinit.CPSM             = SDIO_CPSM_ENABLE;
 996:Drivers/STM32F4xx_HAL_Driver/Src/stm32f4xx_ll_sdmmc.c ****   (void)SDIO_SendCommand(SDIOx, &sdmmc_cmdinit);
 997:Drivers/STM32F4xx_HAL_Driver/Src/stm32f4xx_ll_sdmmc.c ****   
 998:Drivers/STM32F4xx_HAL_Driver/Src/stm32f4xx_ll_sdmmc.c ****   /* Check for error conditions */
 999:Drivers/STM32F4xx_HAL_Driver/Src/stm32f4xx_ll_sdmmc.c ****   errorstate = SDMMC_GetCmdResp2(SDIOx);
1000:Drivers/STM32F4xx_HAL_Driver/Src/stm32f4xx_ll_sdmmc.c **** 
1001:Drivers/STM32F4xx_HAL_Driver/Src/stm32f4xx_ll_sdmmc.c ****   return errorstate;
ARM GAS  C:\Users\Cihat\AppData\Local\Temp\ccTPXPIa.s 			page 19


1002:Drivers/STM32F4xx_HAL_Driver/Src/stm32f4xx_ll_sdmmc.c **** }
1003:Drivers/STM32F4xx_HAL_Driver/Src/stm32f4xx_ll_sdmmc.c **** 
1004:Drivers/STM32F4xx_HAL_Driver/Src/stm32f4xx_ll_sdmmc.c **** /**
1005:Drivers/STM32F4xx_HAL_Driver/Src/stm32f4xx_ll_sdmmc.c ****   * @brief  Send the Send CSD command and check the response.
1006:Drivers/STM32F4xx_HAL_Driver/Src/stm32f4xx_ll_sdmmc.c ****   * @param  SDIOx: Pointer to SDIO register base 
1007:Drivers/STM32F4xx_HAL_Driver/Src/stm32f4xx_ll_sdmmc.c ****   * @param  pRCA: Card RCA  
1008:Drivers/STM32F4xx_HAL_Driver/Src/stm32f4xx_ll_sdmmc.c ****   * @retval HAL status
1009:Drivers/STM32F4xx_HAL_Driver/Src/stm32f4xx_ll_sdmmc.c ****   */
1010:Drivers/STM32F4xx_HAL_Driver/Src/stm32f4xx_ll_sdmmc.c **** uint32_t SDMMC_CmdSetRelAdd(SDIO_TypeDef *SDIOx, uint16_t *pRCA)
1011:Drivers/STM32F4xx_HAL_Driver/Src/stm32f4xx_ll_sdmmc.c **** {
1012:Drivers/STM32F4xx_HAL_Driver/Src/stm32f4xx_ll_sdmmc.c ****   SDIO_CmdInitTypeDef  sdmmc_cmdinit;
1013:Drivers/STM32F4xx_HAL_Driver/Src/stm32f4xx_ll_sdmmc.c ****   uint32_t errorstate;
1014:Drivers/STM32F4xx_HAL_Driver/Src/stm32f4xx_ll_sdmmc.c ****   
1015:Drivers/STM32F4xx_HAL_Driver/Src/stm32f4xx_ll_sdmmc.c ****   /* Send CMD3 SD_CMD_SET_REL_ADDR */
1016:Drivers/STM32F4xx_HAL_Driver/Src/stm32f4xx_ll_sdmmc.c ****   sdmmc_cmdinit.Argument         = 0U;
1017:Drivers/STM32F4xx_HAL_Driver/Src/stm32f4xx_ll_sdmmc.c ****   sdmmc_cmdinit.CmdIndex         = SDMMC_CMD_SET_REL_ADDR;
1018:Drivers/STM32F4xx_HAL_Driver/Src/stm32f4xx_ll_sdmmc.c ****   sdmmc_cmdinit.Response         = SDIO_RESPONSE_SHORT;
1019:Drivers/STM32F4xx_HAL_Driver/Src/stm32f4xx_ll_sdmmc.c ****   sdmmc_cmdinit.WaitForInterrupt = SDIO_WAIT_NO;
1020:Drivers/STM32F4xx_HAL_Driver/Src/stm32f4xx_ll_sdmmc.c ****   sdmmc_cmdinit.CPSM             = SDIO_CPSM_ENABLE;
1021:Drivers/STM32F4xx_HAL_Driver/Src/stm32f4xx_ll_sdmmc.c ****   (void)SDIO_SendCommand(SDIOx, &sdmmc_cmdinit);
1022:Drivers/STM32F4xx_HAL_Driver/Src/stm32f4xx_ll_sdmmc.c ****   
1023:Drivers/STM32F4xx_HAL_Driver/Src/stm32f4xx_ll_sdmmc.c ****   /* Check for error conditions */
1024:Drivers/STM32F4xx_HAL_Driver/Src/stm32f4xx_ll_sdmmc.c ****   errorstate = SDMMC_GetCmdResp6(SDIOx, SDMMC_CMD_SET_REL_ADDR, pRCA);
1025:Drivers/STM32F4xx_HAL_Driver/Src/stm32f4xx_ll_sdmmc.c **** 
1026:Drivers/STM32F4xx_HAL_Driver/Src/stm32f4xx_ll_sdmmc.c ****   return errorstate;
1027:Drivers/STM32F4xx_HAL_Driver/Src/stm32f4xx_ll_sdmmc.c **** }
1028:Drivers/STM32F4xx_HAL_Driver/Src/stm32f4xx_ll_sdmmc.c **** 
1029:Drivers/STM32F4xx_HAL_Driver/Src/stm32f4xx_ll_sdmmc.c **** /**
1030:Drivers/STM32F4xx_HAL_Driver/Src/stm32f4xx_ll_sdmmc.c ****   * @brief  Send the Status command and check the response.
1031:Drivers/STM32F4xx_HAL_Driver/Src/stm32f4xx_ll_sdmmc.c ****   * @param  SDIOx: Pointer to SDIO register base 
1032:Drivers/STM32F4xx_HAL_Driver/Src/stm32f4xx_ll_sdmmc.c ****   * @param  Argument: Command Argument
1033:Drivers/STM32F4xx_HAL_Driver/Src/stm32f4xx_ll_sdmmc.c ****   * @retval HAL status
1034:Drivers/STM32F4xx_HAL_Driver/Src/stm32f4xx_ll_sdmmc.c ****   */
1035:Drivers/STM32F4xx_HAL_Driver/Src/stm32f4xx_ll_sdmmc.c **** uint32_t SDMMC_CmdSendStatus(SDIO_TypeDef *SDIOx, uint32_t Argument)
1036:Drivers/STM32F4xx_HAL_Driver/Src/stm32f4xx_ll_sdmmc.c **** {
1037:Drivers/STM32F4xx_HAL_Driver/Src/stm32f4xx_ll_sdmmc.c ****   SDIO_CmdInitTypeDef  sdmmc_cmdinit;
1038:Drivers/STM32F4xx_HAL_Driver/Src/stm32f4xx_ll_sdmmc.c ****   uint32_t errorstate;
1039:Drivers/STM32F4xx_HAL_Driver/Src/stm32f4xx_ll_sdmmc.c ****   
1040:Drivers/STM32F4xx_HAL_Driver/Src/stm32f4xx_ll_sdmmc.c ****   sdmmc_cmdinit.Argument         = Argument;
1041:Drivers/STM32F4xx_HAL_Driver/Src/stm32f4xx_ll_sdmmc.c ****   sdmmc_cmdinit.CmdIndex         = SDMMC_CMD_SEND_STATUS;
1042:Drivers/STM32F4xx_HAL_Driver/Src/stm32f4xx_ll_sdmmc.c ****   sdmmc_cmdinit.Response         = SDIO_RESPONSE_SHORT;
1043:Drivers/STM32F4xx_HAL_Driver/Src/stm32f4xx_ll_sdmmc.c ****   sdmmc_cmdinit.WaitForInterrupt = SDIO_WAIT_NO;
1044:Drivers/STM32F4xx_HAL_Driver/Src/stm32f4xx_ll_sdmmc.c ****   sdmmc_cmdinit.CPSM             = SDIO_CPSM_ENABLE;
1045:Drivers/STM32F4xx_HAL_Driver/Src/stm32f4xx_ll_sdmmc.c ****   (void)SDIO_SendCommand(SDIOx, &sdmmc_cmdinit);
1046:Drivers/STM32F4xx_HAL_Driver/Src/stm32f4xx_ll_sdmmc.c ****   
1047:Drivers/STM32F4xx_HAL_Driver/Src/stm32f4xx_ll_sdmmc.c ****   /* Check for error conditions */
1048:Drivers/STM32F4xx_HAL_Driver/Src/stm32f4xx_ll_sdmmc.c ****   errorstate = SDMMC_GetCmdResp1(SDIOx, SDMMC_CMD_SEND_STATUS, SDIO_CMDTIMEOUT);
1049:Drivers/STM32F4xx_HAL_Driver/Src/stm32f4xx_ll_sdmmc.c **** 
1050:Drivers/STM32F4xx_HAL_Driver/Src/stm32f4xx_ll_sdmmc.c ****   return errorstate;
1051:Drivers/STM32F4xx_HAL_Driver/Src/stm32f4xx_ll_sdmmc.c **** }
1052:Drivers/STM32F4xx_HAL_Driver/Src/stm32f4xx_ll_sdmmc.c **** 
1053:Drivers/STM32F4xx_HAL_Driver/Src/stm32f4xx_ll_sdmmc.c **** /**
1054:Drivers/STM32F4xx_HAL_Driver/Src/stm32f4xx_ll_sdmmc.c ****   * @brief  Send the Status register command and check the response.
1055:Drivers/STM32F4xx_HAL_Driver/Src/stm32f4xx_ll_sdmmc.c ****   * @param  SDIOx: Pointer to SDIO register base 
1056:Drivers/STM32F4xx_HAL_Driver/Src/stm32f4xx_ll_sdmmc.c ****   * @retval HAL status
1057:Drivers/STM32F4xx_HAL_Driver/Src/stm32f4xx_ll_sdmmc.c ****   */
1058:Drivers/STM32F4xx_HAL_Driver/Src/stm32f4xx_ll_sdmmc.c **** uint32_t SDMMC_CmdStatusRegister(SDIO_TypeDef *SDIOx)
ARM GAS  C:\Users\Cihat\AppData\Local\Temp\ccTPXPIa.s 			page 20


1059:Drivers/STM32F4xx_HAL_Driver/Src/stm32f4xx_ll_sdmmc.c **** {
1060:Drivers/STM32F4xx_HAL_Driver/Src/stm32f4xx_ll_sdmmc.c ****   SDIO_CmdInitTypeDef  sdmmc_cmdinit;
1061:Drivers/STM32F4xx_HAL_Driver/Src/stm32f4xx_ll_sdmmc.c ****   uint32_t errorstate;
1062:Drivers/STM32F4xx_HAL_Driver/Src/stm32f4xx_ll_sdmmc.c ****   
1063:Drivers/STM32F4xx_HAL_Driver/Src/stm32f4xx_ll_sdmmc.c ****   sdmmc_cmdinit.Argument         = 0U;
1064:Drivers/STM32F4xx_HAL_Driver/Src/stm32f4xx_ll_sdmmc.c ****   sdmmc_cmdinit.CmdIndex         = SDMMC_CMD_SD_APP_STATUS;
1065:Drivers/STM32F4xx_HAL_Driver/Src/stm32f4xx_ll_sdmmc.c ****   sdmmc_cmdinit.Response         = SDIO_RESPONSE_SHORT;
1066:Drivers/STM32F4xx_HAL_Driver/Src/stm32f4xx_ll_sdmmc.c ****   sdmmc_cmdinit.WaitForInterrupt = SDIO_WAIT_NO;
1067:Drivers/STM32F4xx_HAL_Driver/Src/stm32f4xx_ll_sdmmc.c ****   sdmmc_cmdinit.CPSM             = SDIO_CPSM_ENABLE;
1068:Drivers/STM32F4xx_HAL_Driver/Src/stm32f4xx_ll_sdmmc.c ****   (void)SDIO_SendCommand(SDIOx, &sdmmc_cmdinit);
1069:Drivers/STM32F4xx_HAL_Driver/Src/stm32f4xx_ll_sdmmc.c ****   
1070:Drivers/STM32F4xx_HAL_Driver/Src/stm32f4xx_ll_sdmmc.c ****   /* Check for error conditions */
1071:Drivers/STM32F4xx_HAL_Driver/Src/stm32f4xx_ll_sdmmc.c ****   errorstate = SDMMC_GetCmdResp1(SDIOx, SDMMC_CMD_SD_APP_STATUS, SDIO_CMDTIMEOUT);
1072:Drivers/STM32F4xx_HAL_Driver/Src/stm32f4xx_ll_sdmmc.c **** 
1073:Drivers/STM32F4xx_HAL_Driver/Src/stm32f4xx_ll_sdmmc.c ****   return errorstate;
1074:Drivers/STM32F4xx_HAL_Driver/Src/stm32f4xx_ll_sdmmc.c **** }
1075:Drivers/STM32F4xx_HAL_Driver/Src/stm32f4xx_ll_sdmmc.c **** 
1076:Drivers/STM32F4xx_HAL_Driver/Src/stm32f4xx_ll_sdmmc.c **** /**
1077:Drivers/STM32F4xx_HAL_Driver/Src/stm32f4xx_ll_sdmmc.c ****   * @brief  Sends host capacity support information and activates the card's 
1078:Drivers/STM32F4xx_HAL_Driver/Src/stm32f4xx_ll_sdmmc.c ****   *         initialization process. Send SDMMC_CMD_SEND_OP_COND command
1079:Drivers/STM32F4xx_HAL_Driver/Src/stm32f4xx_ll_sdmmc.c ****   * @param  SDIOx: Pointer to SDIO register base 
1080:Drivers/STM32F4xx_HAL_Driver/Src/stm32f4xx_ll_sdmmc.c ****   * @parame Argument: Argument used for the command
1081:Drivers/STM32F4xx_HAL_Driver/Src/stm32f4xx_ll_sdmmc.c ****   * @retval HAL status
1082:Drivers/STM32F4xx_HAL_Driver/Src/stm32f4xx_ll_sdmmc.c ****   */
1083:Drivers/STM32F4xx_HAL_Driver/Src/stm32f4xx_ll_sdmmc.c **** uint32_t SDMMC_CmdOpCondition(SDIO_TypeDef *SDIOx, uint32_t Argument)
1084:Drivers/STM32F4xx_HAL_Driver/Src/stm32f4xx_ll_sdmmc.c **** {
1085:Drivers/STM32F4xx_HAL_Driver/Src/stm32f4xx_ll_sdmmc.c ****   SDIO_CmdInitTypeDef  sdmmc_cmdinit;
1086:Drivers/STM32F4xx_HAL_Driver/Src/stm32f4xx_ll_sdmmc.c ****   uint32_t errorstate;
1087:Drivers/STM32F4xx_HAL_Driver/Src/stm32f4xx_ll_sdmmc.c ****   
1088:Drivers/STM32F4xx_HAL_Driver/Src/stm32f4xx_ll_sdmmc.c ****   sdmmc_cmdinit.Argument         = Argument;
1089:Drivers/STM32F4xx_HAL_Driver/Src/stm32f4xx_ll_sdmmc.c ****   sdmmc_cmdinit.CmdIndex         = SDMMC_CMD_SEND_OP_COND;
1090:Drivers/STM32F4xx_HAL_Driver/Src/stm32f4xx_ll_sdmmc.c ****   sdmmc_cmdinit.Response         = SDIO_RESPONSE_SHORT;
1091:Drivers/STM32F4xx_HAL_Driver/Src/stm32f4xx_ll_sdmmc.c ****   sdmmc_cmdinit.WaitForInterrupt = SDIO_WAIT_NO;
1092:Drivers/STM32F4xx_HAL_Driver/Src/stm32f4xx_ll_sdmmc.c ****   sdmmc_cmdinit.CPSM             = SDIO_CPSM_ENABLE;
1093:Drivers/STM32F4xx_HAL_Driver/Src/stm32f4xx_ll_sdmmc.c ****   (void)SDIO_SendCommand(SDIOx, &sdmmc_cmdinit);
1094:Drivers/STM32F4xx_HAL_Driver/Src/stm32f4xx_ll_sdmmc.c ****   
1095:Drivers/STM32F4xx_HAL_Driver/Src/stm32f4xx_ll_sdmmc.c ****   /* Check for error conditions */
1096:Drivers/STM32F4xx_HAL_Driver/Src/stm32f4xx_ll_sdmmc.c ****   errorstate = SDMMC_GetCmdResp3(SDIOx);
1097:Drivers/STM32F4xx_HAL_Driver/Src/stm32f4xx_ll_sdmmc.c **** 
1098:Drivers/STM32F4xx_HAL_Driver/Src/stm32f4xx_ll_sdmmc.c ****   return errorstate;
1099:Drivers/STM32F4xx_HAL_Driver/Src/stm32f4xx_ll_sdmmc.c **** }
1100:Drivers/STM32F4xx_HAL_Driver/Src/stm32f4xx_ll_sdmmc.c **** 
1101:Drivers/STM32F4xx_HAL_Driver/Src/stm32f4xx_ll_sdmmc.c **** /**
1102:Drivers/STM32F4xx_HAL_Driver/Src/stm32f4xx_ll_sdmmc.c ****   * @brief  Checks switchable function and switch card function. SDMMC_CMD_HS_SWITCH command
1103:Drivers/STM32F4xx_HAL_Driver/Src/stm32f4xx_ll_sdmmc.c ****   * @param  SDIOx: Pointer to SDIO register base 
1104:Drivers/STM32F4xx_HAL_Driver/Src/stm32f4xx_ll_sdmmc.c ****   * @parame Argument: Argument used for the command
1105:Drivers/STM32F4xx_HAL_Driver/Src/stm32f4xx_ll_sdmmc.c ****   * @retval HAL status
1106:Drivers/STM32F4xx_HAL_Driver/Src/stm32f4xx_ll_sdmmc.c ****   */
1107:Drivers/STM32F4xx_HAL_Driver/Src/stm32f4xx_ll_sdmmc.c **** uint32_t SDMMC_CmdSwitch(SDIO_TypeDef *SDIOx, uint32_t Argument)
1108:Drivers/STM32F4xx_HAL_Driver/Src/stm32f4xx_ll_sdmmc.c **** {
1109:Drivers/STM32F4xx_HAL_Driver/Src/stm32f4xx_ll_sdmmc.c ****   SDIO_CmdInitTypeDef  sdmmc_cmdinit;
1110:Drivers/STM32F4xx_HAL_Driver/Src/stm32f4xx_ll_sdmmc.c ****   uint32_t errorstate;
1111:Drivers/STM32F4xx_HAL_Driver/Src/stm32f4xx_ll_sdmmc.c ****   
1112:Drivers/STM32F4xx_HAL_Driver/Src/stm32f4xx_ll_sdmmc.c ****   /* Send CMD6 to activate SDR50 Mode and Power Limit 1.44W */
1113:Drivers/STM32F4xx_HAL_Driver/Src/stm32f4xx_ll_sdmmc.c ****   /* CMD Response: R1 */
1114:Drivers/STM32F4xx_HAL_Driver/Src/stm32f4xx_ll_sdmmc.c ****   sdmmc_cmdinit.Argument         = Argument; /* SDMMC_SDR25_SWITCH_PATTERN */
1115:Drivers/STM32F4xx_HAL_Driver/Src/stm32f4xx_ll_sdmmc.c ****   sdmmc_cmdinit.CmdIndex         = SDMMC_CMD_HS_SWITCH;
ARM GAS  C:\Users\Cihat\AppData\Local\Temp\ccTPXPIa.s 			page 21


1116:Drivers/STM32F4xx_HAL_Driver/Src/stm32f4xx_ll_sdmmc.c ****   sdmmc_cmdinit.Response         = SDIO_RESPONSE_SHORT;
1117:Drivers/STM32F4xx_HAL_Driver/Src/stm32f4xx_ll_sdmmc.c ****   sdmmc_cmdinit.WaitForInterrupt = SDIO_WAIT_NO;
1118:Drivers/STM32F4xx_HAL_Driver/Src/stm32f4xx_ll_sdmmc.c ****   sdmmc_cmdinit.CPSM             = SDIO_CPSM_ENABLE;
1119:Drivers/STM32F4xx_HAL_Driver/Src/stm32f4xx_ll_sdmmc.c ****   (void)SDIO_SendCommand(SDIOx, &sdmmc_cmdinit);
1120:Drivers/STM32F4xx_HAL_Driver/Src/stm32f4xx_ll_sdmmc.c ****   
1121:Drivers/STM32F4xx_HAL_Driver/Src/stm32f4xx_ll_sdmmc.c ****   /* Check for error conditions */
1122:Drivers/STM32F4xx_HAL_Driver/Src/stm32f4xx_ll_sdmmc.c ****   errorstate = SDMMC_GetCmdResp1(SDIOx, SDMMC_CMD_HS_SWITCH, SDIO_CMDTIMEOUT);
1123:Drivers/STM32F4xx_HAL_Driver/Src/stm32f4xx_ll_sdmmc.c **** 
1124:Drivers/STM32F4xx_HAL_Driver/Src/stm32f4xx_ll_sdmmc.c ****   return errorstate;
1125:Drivers/STM32F4xx_HAL_Driver/Src/stm32f4xx_ll_sdmmc.c **** }
1126:Drivers/STM32F4xx_HAL_Driver/Src/stm32f4xx_ll_sdmmc.c **** 
1127:Drivers/STM32F4xx_HAL_Driver/Src/stm32f4xx_ll_sdmmc.c **** /**
1128:Drivers/STM32F4xx_HAL_Driver/Src/stm32f4xx_ll_sdmmc.c ****   * @}
1129:Drivers/STM32F4xx_HAL_Driver/Src/stm32f4xx_ll_sdmmc.c ****   */
1130:Drivers/STM32F4xx_HAL_Driver/Src/stm32f4xx_ll_sdmmc.c **** 
1131:Drivers/STM32F4xx_HAL_Driver/Src/stm32f4xx_ll_sdmmc.c **** /* Private function ----------------------------------------------------------*/  
1132:Drivers/STM32F4xx_HAL_Driver/Src/stm32f4xx_ll_sdmmc.c **** /** @addtogroup SD_Private_Functions
1133:Drivers/STM32F4xx_HAL_Driver/Src/stm32f4xx_ll_sdmmc.c ****   * @{
1134:Drivers/STM32F4xx_HAL_Driver/Src/stm32f4xx_ll_sdmmc.c ****   */
1135:Drivers/STM32F4xx_HAL_Driver/Src/stm32f4xx_ll_sdmmc.c ****     
1136:Drivers/STM32F4xx_HAL_Driver/Src/stm32f4xx_ll_sdmmc.c **** /**
1137:Drivers/STM32F4xx_HAL_Driver/Src/stm32f4xx_ll_sdmmc.c ****   * @brief  Checks for error conditions for CMD0.
1138:Drivers/STM32F4xx_HAL_Driver/Src/stm32f4xx_ll_sdmmc.c ****   * @param  hsd: SD handle
1139:Drivers/STM32F4xx_HAL_Driver/Src/stm32f4xx_ll_sdmmc.c ****   * @retval SD Card error state
1140:Drivers/STM32F4xx_HAL_Driver/Src/stm32f4xx_ll_sdmmc.c ****   */
1141:Drivers/STM32F4xx_HAL_Driver/Src/stm32f4xx_ll_sdmmc.c **** static uint32_t SDMMC_GetCmdError(SDIO_TypeDef *SDIOx)
1142:Drivers/STM32F4xx_HAL_Driver/Src/stm32f4xx_ll_sdmmc.c **** {
  27              		.loc 1 1142 0
  28              		.cfi_startproc
  29              		@ args = 0, pretend = 0, frame = 0
  30              		@ frame_needed = 0, uses_anonymous_args = 0
  31              		@ link register save eliminated.
  32              	.LVL0:
1143:Drivers/STM32F4xx_HAL_Driver/Src/stm32f4xx_ll_sdmmc.c ****   /* 8 is the number of required instructions cycles for the below loop statement.
1144:Drivers/STM32F4xx_HAL_Driver/Src/stm32f4xx_ll_sdmmc.c ****   The SDIO_CMDTIMEOUT is expressed in ms */
1145:Drivers/STM32F4xx_HAL_Driver/Src/stm32f4xx_ll_sdmmc.c ****   uint32_t count = SDIO_CMDTIMEOUT * (SystemCoreClock / 8U /1000U);
  33              		.loc 1 1145 0
  34 0000 0B4B     		ldr	r3, .L5
  35 0002 1B68     		ldr	r3, [r3]
  36 0004 0B4A     		ldr	r2, .L5+4
  37 0006 A2FB0323 		umull	r2, r3, r2, r3
  38 000a 5A0A     		lsrs	r2, r3, #9
  39 000c 41F28833 		movw	r3, #5000
  40 0010 03FB02F3 		mul	r3, r3, r2
  41              	.LVL1:
  42              	.L3:
1146:Drivers/STM32F4xx_HAL_Driver/Src/stm32f4xx_ll_sdmmc.c ****   
1147:Drivers/STM32F4xx_HAL_Driver/Src/stm32f4xx_ll_sdmmc.c ****   do
1148:Drivers/STM32F4xx_HAL_Driver/Src/stm32f4xx_ll_sdmmc.c ****   {
1149:Drivers/STM32F4xx_HAL_Driver/Src/stm32f4xx_ll_sdmmc.c ****     if (count-- == 0U)
  43              		.loc 1 1149 0
  44 0014 5A1E     		subs	r2, r3, #1
  45              	.LVL2:
  46 0016 43B1     		cbz	r3, .L4
1150:Drivers/STM32F4xx_HAL_Driver/Src/stm32f4xx_ll_sdmmc.c ****     {
1151:Drivers/STM32F4xx_HAL_Driver/Src/stm32f4xx_ll_sdmmc.c ****       return SDMMC_ERROR_TIMEOUT;
1152:Drivers/STM32F4xx_HAL_Driver/Src/stm32f4xx_ll_sdmmc.c ****     }
ARM GAS  C:\Users\Cihat\AppData\Local\Temp\ccTPXPIa.s 			page 22


1153:Drivers/STM32F4xx_HAL_Driver/Src/stm32f4xx_ll_sdmmc.c ****     
1154:Drivers/STM32F4xx_HAL_Driver/Src/stm32f4xx_ll_sdmmc.c ****   }while(!__SDIO_GET_FLAG(SDIOx, SDIO_FLAG_CMDSENT));
  47              		.loc 1 1154 0
  48 0018 416B     		ldr	r1, [r0, #52]
1149:Drivers/STM32F4xx_HAL_Driver/Src/stm32f4xx_ll_sdmmc.c ****     {
  49              		.loc 1 1149 0
  50 001a 1346     		mov	r3, r2
  51              		.loc 1 1154 0
  52 001c 11F0800F 		tst	r1, #128
  53 0020 F8D0     		beq	.L3
1155:Drivers/STM32F4xx_HAL_Driver/Src/stm32f4xx_ll_sdmmc.c ****   
1156:Drivers/STM32F4xx_HAL_Driver/Src/stm32f4xx_ll_sdmmc.c ****   /* Clear all the static flags */
1157:Drivers/STM32F4xx_HAL_Driver/Src/stm32f4xx_ll_sdmmc.c ****   __SDIO_CLEAR_FLAG(SDIOx, SDIO_STATIC_CMD_FLAGS);
  54              		.loc 1 1157 0
  55 0022 C523     		movs	r3, #197
  56 0024 8363     		str	r3, [r0, #56]
1158:Drivers/STM32F4xx_HAL_Driver/Src/stm32f4xx_ll_sdmmc.c ****   
1159:Drivers/STM32F4xx_HAL_Driver/Src/stm32f4xx_ll_sdmmc.c ****   return SDMMC_ERROR_NONE;
  57              		.loc 1 1159 0
  58 0026 0020     		movs	r0, #0
  59              	.LVL3:
  60 0028 7047     		bx	lr
  61              	.LVL4:
  62              	.L4:
1151:Drivers/STM32F4xx_HAL_Driver/Src/stm32f4xx_ll_sdmmc.c ****     }
  63              		.loc 1 1151 0
  64 002a 4FF00040 		mov	r0, #-2147483648
  65              	.LVL5:
1160:Drivers/STM32F4xx_HAL_Driver/Src/stm32f4xx_ll_sdmmc.c **** }
  66              		.loc 1 1160 0
  67 002e 7047     		bx	lr
  68              	.L6:
  69              		.align	2
  70              	.L5:
  71 0030 00000000 		.word	SystemCoreClock
  72 0034 D34D6210 		.word	274877907
  73              		.cfi_endproc
  74              	.LFE168:
  76              		.section	.text.SDMMC_GetCmdResp2,"ax",%progbits
  77              		.align	1
  78              		.syntax unified
  79              		.thumb
  80              		.thumb_func
  81              		.fpu fpv4-sp-d16
  83              	SDMMC_GetCmdResp2:
  84              	.LFB170:
1161:Drivers/STM32F4xx_HAL_Driver/Src/stm32f4xx_ll_sdmmc.c **** 
1162:Drivers/STM32F4xx_HAL_Driver/Src/stm32f4xx_ll_sdmmc.c **** /**
1163:Drivers/STM32F4xx_HAL_Driver/Src/stm32f4xx_ll_sdmmc.c ****   * @brief  Checks for error conditions for R1 response.
1164:Drivers/STM32F4xx_HAL_Driver/Src/stm32f4xx_ll_sdmmc.c ****   * @param  hsd: SD handle
1165:Drivers/STM32F4xx_HAL_Driver/Src/stm32f4xx_ll_sdmmc.c ****   * @param  SD_CMD: The sent command index  
1166:Drivers/STM32F4xx_HAL_Driver/Src/stm32f4xx_ll_sdmmc.c ****   * @retval SD Card error state
1167:Drivers/STM32F4xx_HAL_Driver/Src/stm32f4xx_ll_sdmmc.c ****   */
1168:Drivers/STM32F4xx_HAL_Driver/Src/stm32f4xx_ll_sdmmc.c **** static uint32_t SDMMC_GetCmdResp1(SDIO_TypeDef *SDIOx, uint8_t SD_CMD, uint32_t Timeout)
1169:Drivers/STM32F4xx_HAL_Driver/Src/stm32f4xx_ll_sdmmc.c **** {
1170:Drivers/STM32F4xx_HAL_Driver/Src/stm32f4xx_ll_sdmmc.c ****   uint32_t response_r1;
1171:Drivers/STM32F4xx_HAL_Driver/Src/stm32f4xx_ll_sdmmc.c ****   uint32_t sta_reg;
ARM GAS  C:\Users\Cihat\AppData\Local\Temp\ccTPXPIa.s 			page 23


1172:Drivers/STM32F4xx_HAL_Driver/Src/stm32f4xx_ll_sdmmc.c ****   
1173:Drivers/STM32F4xx_HAL_Driver/Src/stm32f4xx_ll_sdmmc.c ****   /* 8 is the number of required instructions cycles for the below loop statement.
1174:Drivers/STM32F4xx_HAL_Driver/Src/stm32f4xx_ll_sdmmc.c ****   The Timeout is expressed in ms */
1175:Drivers/STM32F4xx_HAL_Driver/Src/stm32f4xx_ll_sdmmc.c ****   uint32_t count = Timeout * (SystemCoreClock / 8U /1000U);
1176:Drivers/STM32F4xx_HAL_Driver/Src/stm32f4xx_ll_sdmmc.c ****   
1177:Drivers/STM32F4xx_HAL_Driver/Src/stm32f4xx_ll_sdmmc.c ****   do
1178:Drivers/STM32F4xx_HAL_Driver/Src/stm32f4xx_ll_sdmmc.c ****   {
1179:Drivers/STM32F4xx_HAL_Driver/Src/stm32f4xx_ll_sdmmc.c ****     if (count-- == 0U)
1180:Drivers/STM32F4xx_HAL_Driver/Src/stm32f4xx_ll_sdmmc.c ****     {
1181:Drivers/STM32F4xx_HAL_Driver/Src/stm32f4xx_ll_sdmmc.c ****       return SDMMC_ERROR_TIMEOUT;
1182:Drivers/STM32F4xx_HAL_Driver/Src/stm32f4xx_ll_sdmmc.c ****     }
1183:Drivers/STM32F4xx_HAL_Driver/Src/stm32f4xx_ll_sdmmc.c ****     sta_reg = SDIOx->STA;
1184:Drivers/STM32F4xx_HAL_Driver/Src/stm32f4xx_ll_sdmmc.c ****   }while(((sta_reg & (SDIO_FLAG_CCRCFAIL | SDIO_FLAG_CMDREND | SDIO_FLAG_CTIMEOUT)) == 0U) ||
1185:Drivers/STM32F4xx_HAL_Driver/Src/stm32f4xx_ll_sdmmc.c ****          ((sta_reg & SDIO_FLAG_CMDACT) != 0U ));
1186:Drivers/STM32F4xx_HAL_Driver/Src/stm32f4xx_ll_sdmmc.c ****     
1187:Drivers/STM32F4xx_HAL_Driver/Src/stm32f4xx_ll_sdmmc.c ****   if(__SDIO_GET_FLAG(SDIOx, SDIO_FLAG_CTIMEOUT))
1188:Drivers/STM32F4xx_HAL_Driver/Src/stm32f4xx_ll_sdmmc.c ****   {
1189:Drivers/STM32F4xx_HAL_Driver/Src/stm32f4xx_ll_sdmmc.c ****     __SDIO_CLEAR_FLAG(SDIOx, SDIO_FLAG_CTIMEOUT);
1190:Drivers/STM32F4xx_HAL_Driver/Src/stm32f4xx_ll_sdmmc.c ****     
1191:Drivers/STM32F4xx_HAL_Driver/Src/stm32f4xx_ll_sdmmc.c ****     return SDMMC_ERROR_CMD_RSP_TIMEOUT;
1192:Drivers/STM32F4xx_HAL_Driver/Src/stm32f4xx_ll_sdmmc.c ****   }
1193:Drivers/STM32F4xx_HAL_Driver/Src/stm32f4xx_ll_sdmmc.c ****   else if(__SDIO_GET_FLAG(SDIOx, SDIO_FLAG_CCRCFAIL))
1194:Drivers/STM32F4xx_HAL_Driver/Src/stm32f4xx_ll_sdmmc.c ****   {
1195:Drivers/STM32F4xx_HAL_Driver/Src/stm32f4xx_ll_sdmmc.c ****     __SDIO_CLEAR_FLAG(SDIOx, SDIO_FLAG_CCRCFAIL);
1196:Drivers/STM32F4xx_HAL_Driver/Src/stm32f4xx_ll_sdmmc.c ****     
1197:Drivers/STM32F4xx_HAL_Driver/Src/stm32f4xx_ll_sdmmc.c ****     return SDMMC_ERROR_CMD_CRC_FAIL;
1198:Drivers/STM32F4xx_HAL_Driver/Src/stm32f4xx_ll_sdmmc.c ****   }
1199:Drivers/STM32F4xx_HAL_Driver/Src/stm32f4xx_ll_sdmmc.c ****   else
1200:Drivers/STM32F4xx_HAL_Driver/Src/stm32f4xx_ll_sdmmc.c ****   {
1201:Drivers/STM32F4xx_HAL_Driver/Src/stm32f4xx_ll_sdmmc.c ****     /* Nothing to do */
1202:Drivers/STM32F4xx_HAL_Driver/Src/stm32f4xx_ll_sdmmc.c ****   }
1203:Drivers/STM32F4xx_HAL_Driver/Src/stm32f4xx_ll_sdmmc.c ****   
1204:Drivers/STM32F4xx_HAL_Driver/Src/stm32f4xx_ll_sdmmc.c ****   /* Clear all the static flags */
1205:Drivers/STM32F4xx_HAL_Driver/Src/stm32f4xx_ll_sdmmc.c ****   __SDIO_CLEAR_FLAG(SDIOx, SDIO_STATIC_CMD_FLAGS);
1206:Drivers/STM32F4xx_HAL_Driver/Src/stm32f4xx_ll_sdmmc.c ****   
1207:Drivers/STM32F4xx_HAL_Driver/Src/stm32f4xx_ll_sdmmc.c ****   /* Check response received is of desired command */
1208:Drivers/STM32F4xx_HAL_Driver/Src/stm32f4xx_ll_sdmmc.c ****   if(SDIO_GetCommandResponse(SDIOx) != SD_CMD)
1209:Drivers/STM32F4xx_HAL_Driver/Src/stm32f4xx_ll_sdmmc.c ****   {
1210:Drivers/STM32F4xx_HAL_Driver/Src/stm32f4xx_ll_sdmmc.c ****     return SDMMC_ERROR_CMD_CRC_FAIL;
1211:Drivers/STM32F4xx_HAL_Driver/Src/stm32f4xx_ll_sdmmc.c ****   }
1212:Drivers/STM32F4xx_HAL_Driver/Src/stm32f4xx_ll_sdmmc.c ****   
1213:Drivers/STM32F4xx_HAL_Driver/Src/stm32f4xx_ll_sdmmc.c ****   /* We have received response, retrieve it for analysis  */
1214:Drivers/STM32F4xx_HAL_Driver/Src/stm32f4xx_ll_sdmmc.c ****   response_r1 = SDIO_GetResponse(SDIOx, SDIO_RESP1);
1215:Drivers/STM32F4xx_HAL_Driver/Src/stm32f4xx_ll_sdmmc.c ****   
1216:Drivers/STM32F4xx_HAL_Driver/Src/stm32f4xx_ll_sdmmc.c ****   if((response_r1 & SDMMC_OCR_ERRORBITS) == SDMMC_ALLZERO)
1217:Drivers/STM32F4xx_HAL_Driver/Src/stm32f4xx_ll_sdmmc.c ****   {
1218:Drivers/STM32F4xx_HAL_Driver/Src/stm32f4xx_ll_sdmmc.c ****     return SDMMC_ERROR_NONE;
1219:Drivers/STM32F4xx_HAL_Driver/Src/stm32f4xx_ll_sdmmc.c ****   }
1220:Drivers/STM32F4xx_HAL_Driver/Src/stm32f4xx_ll_sdmmc.c ****   else if((response_r1 & SDMMC_OCR_ADDR_OUT_OF_RANGE) == SDMMC_OCR_ADDR_OUT_OF_RANGE)
1221:Drivers/STM32F4xx_HAL_Driver/Src/stm32f4xx_ll_sdmmc.c ****   {
1222:Drivers/STM32F4xx_HAL_Driver/Src/stm32f4xx_ll_sdmmc.c ****     return SDMMC_ERROR_ADDR_OUT_OF_RANGE;
1223:Drivers/STM32F4xx_HAL_Driver/Src/stm32f4xx_ll_sdmmc.c ****   }
1224:Drivers/STM32F4xx_HAL_Driver/Src/stm32f4xx_ll_sdmmc.c ****   else if((response_r1 & SDMMC_OCR_ADDR_MISALIGNED) == SDMMC_OCR_ADDR_MISALIGNED)
1225:Drivers/STM32F4xx_HAL_Driver/Src/stm32f4xx_ll_sdmmc.c ****   {
1226:Drivers/STM32F4xx_HAL_Driver/Src/stm32f4xx_ll_sdmmc.c ****     return SDMMC_ERROR_ADDR_MISALIGNED;
1227:Drivers/STM32F4xx_HAL_Driver/Src/stm32f4xx_ll_sdmmc.c ****   }
1228:Drivers/STM32F4xx_HAL_Driver/Src/stm32f4xx_ll_sdmmc.c ****   else if((response_r1 & SDMMC_OCR_BLOCK_LEN_ERR) == SDMMC_OCR_BLOCK_LEN_ERR)
ARM GAS  C:\Users\Cihat\AppData\Local\Temp\ccTPXPIa.s 			page 24


1229:Drivers/STM32F4xx_HAL_Driver/Src/stm32f4xx_ll_sdmmc.c ****   {
1230:Drivers/STM32F4xx_HAL_Driver/Src/stm32f4xx_ll_sdmmc.c ****     return SDMMC_ERROR_BLOCK_LEN_ERR;
1231:Drivers/STM32F4xx_HAL_Driver/Src/stm32f4xx_ll_sdmmc.c ****   }
1232:Drivers/STM32F4xx_HAL_Driver/Src/stm32f4xx_ll_sdmmc.c ****   else if((response_r1 & SDMMC_OCR_ERASE_SEQ_ERR) == SDMMC_OCR_ERASE_SEQ_ERR)
1233:Drivers/STM32F4xx_HAL_Driver/Src/stm32f4xx_ll_sdmmc.c ****   {
1234:Drivers/STM32F4xx_HAL_Driver/Src/stm32f4xx_ll_sdmmc.c ****     return SDMMC_ERROR_ERASE_SEQ_ERR;
1235:Drivers/STM32F4xx_HAL_Driver/Src/stm32f4xx_ll_sdmmc.c ****   }
1236:Drivers/STM32F4xx_HAL_Driver/Src/stm32f4xx_ll_sdmmc.c ****   else if((response_r1 & SDMMC_OCR_BAD_ERASE_PARAM) == SDMMC_OCR_BAD_ERASE_PARAM)
1237:Drivers/STM32F4xx_HAL_Driver/Src/stm32f4xx_ll_sdmmc.c ****   {
1238:Drivers/STM32F4xx_HAL_Driver/Src/stm32f4xx_ll_sdmmc.c ****     return SDMMC_ERROR_BAD_ERASE_PARAM;
1239:Drivers/STM32F4xx_HAL_Driver/Src/stm32f4xx_ll_sdmmc.c ****   }
1240:Drivers/STM32F4xx_HAL_Driver/Src/stm32f4xx_ll_sdmmc.c ****   else if((response_r1 & SDMMC_OCR_WRITE_PROT_VIOLATION) == SDMMC_OCR_WRITE_PROT_VIOLATION)
1241:Drivers/STM32F4xx_HAL_Driver/Src/stm32f4xx_ll_sdmmc.c ****   {
1242:Drivers/STM32F4xx_HAL_Driver/Src/stm32f4xx_ll_sdmmc.c ****     return SDMMC_ERROR_WRITE_PROT_VIOLATION;
1243:Drivers/STM32F4xx_HAL_Driver/Src/stm32f4xx_ll_sdmmc.c ****   }
1244:Drivers/STM32F4xx_HAL_Driver/Src/stm32f4xx_ll_sdmmc.c ****   else if((response_r1 & SDMMC_OCR_LOCK_UNLOCK_FAILED) == SDMMC_OCR_LOCK_UNLOCK_FAILED)
1245:Drivers/STM32F4xx_HAL_Driver/Src/stm32f4xx_ll_sdmmc.c ****   {
1246:Drivers/STM32F4xx_HAL_Driver/Src/stm32f4xx_ll_sdmmc.c ****     return SDMMC_ERROR_LOCK_UNLOCK_FAILED;
1247:Drivers/STM32F4xx_HAL_Driver/Src/stm32f4xx_ll_sdmmc.c ****   }
1248:Drivers/STM32F4xx_HAL_Driver/Src/stm32f4xx_ll_sdmmc.c ****   else if((response_r1 & SDMMC_OCR_COM_CRC_FAILED) == SDMMC_OCR_COM_CRC_FAILED)
1249:Drivers/STM32F4xx_HAL_Driver/Src/stm32f4xx_ll_sdmmc.c ****   {
1250:Drivers/STM32F4xx_HAL_Driver/Src/stm32f4xx_ll_sdmmc.c ****     return SDMMC_ERROR_COM_CRC_FAILED;
1251:Drivers/STM32F4xx_HAL_Driver/Src/stm32f4xx_ll_sdmmc.c ****   }
1252:Drivers/STM32F4xx_HAL_Driver/Src/stm32f4xx_ll_sdmmc.c ****   else if((response_r1 & SDMMC_OCR_ILLEGAL_CMD) == SDMMC_OCR_ILLEGAL_CMD)
1253:Drivers/STM32F4xx_HAL_Driver/Src/stm32f4xx_ll_sdmmc.c ****   {
1254:Drivers/STM32F4xx_HAL_Driver/Src/stm32f4xx_ll_sdmmc.c ****     return SDMMC_ERROR_ILLEGAL_CMD;
1255:Drivers/STM32F4xx_HAL_Driver/Src/stm32f4xx_ll_sdmmc.c ****   }
1256:Drivers/STM32F4xx_HAL_Driver/Src/stm32f4xx_ll_sdmmc.c ****   else if((response_r1 & SDMMC_OCR_CARD_ECC_FAILED) == SDMMC_OCR_CARD_ECC_FAILED)
1257:Drivers/STM32F4xx_HAL_Driver/Src/stm32f4xx_ll_sdmmc.c ****   {
1258:Drivers/STM32F4xx_HAL_Driver/Src/stm32f4xx_ll_sdmmc.c ****     return SDMMC_ERROR_CARD_ECC_FAILED;
1259:Drivers/STM32F4xx_HAL_Driver/Src/stm32f4xx_ll_sdmmc.c ****   }
1260:Drivers/STM32F4xx_HAL_Driver/Src/stm32f4xx_ll_sdmmc.c ****   else if((response_r1 & SDMMC_OCR_CC_ERROR) == SDMMC_OCR_CC_ERROR)
1261:Drivers/STM32F4xx_HAL_Driver/Src/stm32f4xx_ll_sdmmc.c ****   {
1262:Drivers/STM32F4xx_HAL_Driver/Src/stm32f4xx_ll_sdmmc.c ****     return SDMMC_ERROR_CC_ERR;
1263:Drivers/STM32F4xx_HAL_Driver/Src/stm32f4xx_ll_sdmmc.c ****   }
1264:Drivers/STM32F4xx_HAL_Driver/Src/stm32f4xx_ll_sdmmc.c ****   else if((response_r1 & SDMMC_OCR_STREAM_READ_UNDERRUN) == SDMMC_OCR_STREAM_READ_UNDERRUN)
1265:Drivers/STM32F4xx_HAL_Driver/Src/stm32f4xx_ll_sdmmc.c ****   {
1266:Drivers/STM32F4xx_HAL_Driver/Src/stm32f4xx_ll_sdmmc.c ****     return SDMMC_ERROR_STREAM_READ_UNDERRUN;
1267:Drivers/STM32F4xx_HAL_Driver/Src/stm32f4xx_ll_sdmmc.c ****   }
1268:Drivers/STM32F4xx_HAL_Driver/Src/stm32f4xx_ll_sdmmc.c ****   else if((response_r1 & SDMMC_OCR_STREAM_WRITE_OVERRUN) == SDMMC_OCR_STREAM_WRITE_OVERRUN)
1269:Drivers/STM32F4xx_HAL_Driver/Src/stm32f4xx_ll_sdmmc.c ****   {
1270:Drivers/STM32F4xx_HAL_Driver/Src/stm32f4xx_ll_sdmmc.c ****     return SDMMC_ERROR_STREAM_WRITE_OVERRUN;
1271:Drivers/STM32F4xx_HAL_Driver/Src/stm32f4xx_ll_sdmmc.c ****   }
1272:Drivers/STM32F4xx_HAL_Driver/Src/stm32f4xx_ll_sdmmc.c ****   else if((response_r1 & SDMMC_OCR_CID_CSD_OVERWRITE) == SDMMC_OCR_CID_CSD_OVERWRITE)
1273:Drivers/STM32F4xx_HAL_Driver/Src/stm32f4xx_ll_sdmmc.c ****   {
1274:Drivers/STM32F4xx_HAL_Driver/Src/stm32f4xx_ll_sdmmc.c ****     return SDMMC_ERROR_CID_CSD_OVERWRITE;
1275:Drivers/STM32F4xx_HAL_Driver/Src/stm32f4xx_ll_sdmmc.c ****   }
1276:Drivers/STM32F4xx_HAL_Driver/Src/stm32f4xx_ll_sdmmc.c ****   else if((response_r1 & SDMMC_OCR_WP_ERASE_SKIP) == SDMMC_OCR_WP_ERASE_SKIP)
1277:Drivers/STM32F4xx_HAL_Driver/Src/stm32f4xx_ll_sdmmc.c ****   {
1278:Drivers/STM32F4xx_HAL_Driver/Src/stm32f4xx_ll_sdmmc.c ****     return SDMMC_ERROR_WP_ERASE_SKIP;
1279:Drivers/STM32F4xx_HAL_Driver/Src/stm32f4xx_ll_sdmmc.c ****   }
1280:Drivers/STM32F4xx_HAL_Driver/Src/stm32f4xx_ll_sdmmc.c ****   else if((response_r1 & SDMMC_OCR_CARD_ECC_DISABLED) == SDMMC_OCR_CARD_ECC_DISABLED)
1281:Drivers/STM32F4xx_HAL_Driver/Src/stm32f4xx_ll_sdmmc.c ****   {
1282:Drivers/STM32F4xx_HAL_Driver/Src/stm32f4xx_ll_sdmmc.c ****     return SDMMC_ERROR_CARD_ECC_DISABLED;
1283:Drivers/STM32F4xx_HAL_Driver/Src/stm32f4xx_ll_sdmmc.c ****   }
1284:Drivers/STM32F4xx_HAL_Driver/Src/stm32f4xx_ll_sdmmc.c ****   else if((response_r1 & SDMMC_OCR_ERASE_RESET) == SDMMC_OCR_ERASE_RESET)
1285:Drivers/STM32F4xx_HAL_Driver/Src/stm32f4xx_ll_sdmmc.c ****   {
ARM GAS  C:\Users\Cihat\AppData\Local\Temp\ccTPXPIa.s 			page 25


1286:Drivers/STM32F4xx_HAL_Driver/Src/stm32f4xx_ll_sdmmc.c ****     return SDMMC_ERROR_ERASE_RESET;
1287:Drivers/STM32F4xx_HAL_Driver/Src/stm32f4xx_ll_sdmmc.c ****   }
1288:Drivers/STM32F4xx_HAL_Driver/Src/stm32f4xx_ll_sdmmc.c ****   else if((response_r1 & SDMMC_OCR_AKE_SEQ_ERROR) == SDMMC_OCR_AKE_SEQ_ERROR)
1289:Drivers/STM32F4xx_HAL_Driver/Src/stm32f4xx_ll_sdmmc.c ****   {
1290:Drivers/STM32F4xx_HAL_Driver/Src/stm32f4xx_ll_sdmmc.c ****     return SDMMC_ERROR_AKE_SEQ_ERR;
1291:Drivers/STM32F4xx_HAL_Driver/Src/stm32f4xx_ll_sdmmc.c ****   }
1292:Drivers/STM32F4xx_HAL_Driver/Src/stm32f4xx_ll_sdmmc.c ****   else
1293:Drivers/STM32F4xx_HAL_Driver/Src/stm32f4xx_ll_sdmmc.c ****   {
1294:Drivers/STM32F4xx_HAL_Driver/Src/stm32f4xx_ll_sdmmc.c ****     return SDMMC_ERROR_GENERAL_UNKNOWN_ERR;
1295:Drivers/STM32F4xx_HAL_Driver/Src/stm32f4xx_ll_sdmmc.c ****   }
1296:Drivers/STM32F4xx_HAL_Driver/Src/stm32f4xx_ll_sdmmc.c **** }
1297:Drivers/STM32F4xx_HAL_Driver/Src/stm32f4xx_ll_sdmmc.c **** 
1298:Drivers/STM32F4xx_HAL_Driver/Src/stm32f4xx_ll_sdmmc.c **** /**
1299:Drivers/STM32F4xx_HAL_Driver/Src/stm32f4xx_ll_sdmmc.c ****   * @brief  Checks for error conditions for R2 (CID or CSD) response.
1300:Drivers/STM32F4xx_HAL_Driver/Src/stm32f4xx_ll_sdmmc.c ****   * @param  hsd: SD handle
1301:Drivers/STM32F4xx_HAL_Driver/Src/stm32f4xx_ll_sdmmc.c ****   * @retval SD Card error state
1302:Drivers/STM32F4xx_HAL_Driver/Src/stm32f4xx_ll_sdmmc.c ****   */
1303:Drivers/STM32F4xx_HAL_Driver/Src/stm32f4xx_ll_sdmmc.c **** static uint32_t SDMMC_GetCmdResp2(SDIO_TypeDef *SDIOx)
1304:Drivers/STM32F4xx_HAL_Driver/Src/stm32f4xx_ll_sdmmc.c **** {
  85              		.loc 1 1304 0
  86              		.cfi_startproc
  87              		@ args = 0, pretend = 0, frame = 0
  88              		@ frame_needed = 0, uses_anonymous_args = 0
  89              		@ link register save eliminated.
  90              	.LVL6:
1305:Drivers/STM32F4xx_HAL_Driver/Src/stm32f4xx_ll_sdmmc.c ****   uint32_t sta_reg;
1306:Drivers/STM32F4xx_HAL_Driver/Src/stm32f4xx_ll_sdmmc.c ****   /* 8 is the number of required instructions cycles for the below loop statement.
1307:Drivers/STM32F4xx_HAL_Driver/Src/stm32f4xx_ll_sdmmc.c ****   The SDIO_CMDTIMEOUT is expressed in ms */
1308:Drivers/STM32F4xx_HAL_Driver/Src/stm32f4xx_ll_sdmmc.c ****   uint32_t count = SDIO_CMDTIMEOUT * (SystemCoreClock / 8U /1000U);
  91              		.loc 1 1308 0
  92 0000 154B     		ldr	r3, .L15
  93 0002 1B68     		ldr	r3, [r3]
  94 0004 154A     		ldr	r2, .L15+4
  95 0006 A2FB0323 		umull	r2, r3, r2, r3
  96 000a 5A0A     		lsrs	r2, r3, #9
  97 000c 41F28833 		movw	r3, #5000
  98 0010 03FB02F3 		mul	r3, r3, r2
  99              	.LVL7:
 100              	.L9:
1309:Drivers/STM32F4xx_HAL_Driver/Src/stm32f4xx_ll_sdmmc.c ****   
1310:Drivers/STM32F4xx_HAL_Driver/Src/stm32f4xx_ll_sdmmc.c ****   do
1311:Drivers/STM32F4xx_HAL_Driver/Src/stm32f4xx_ll_sdmmc.c ****   {
1312:Drivers/STM32F4xx_HAL_Driver/Src/stm32f4xx_ll_sdmmc.c ****     if (count-- == 0U)
 101              		.loc 1 1312 0
 102 0014 5A1E     		subs	r2, r3, #1
 103              	.LVL8:
 104 0016 DBB1     		cbz	r3, .L12
1313:Drivers/STM32F4xx_HAL_Driver/Src/stm32f4xx_ll_sdmmc.c ****     {
1314:Drivers/STM32F4xx_HAL_Driver/Src/stm32f4xx_ll_sdmmc.c ****       return SDMMC_ERROR_TIMEOUT;
1315:Drivers/STM32F4xx_HAL_Driver/Src/stm32f4xx_ll_sdmmc.c ****     }
1316:Drivers/STM32F4xx_HAL_Driver/Src/stm32f4xx_ll_sdmmc.c ****     sta_reg = SDIOx->STA;
 105              		.loc 1 1316 0
 106 0018 416B     		ldr	r1, [r0, #52]
 107              	.LVL9:
 108 001a 1346     		mov	r3, r2
1317:Drivers/STM32F4xx_HAL_Driver/Src/stm32f4xx_ll_sdmmc.c ****   }while(((sta_reg & (SDIO_FLAG_CCRCFAIL | SDIO_FLAG_CMDREND | SDIO_FLAG_CTIMEOUT)) == 0U) ||
1318:Drivers/STM32F4xx_HAL_Driver/Src/stm32f4xx_ll_sdmmc.c ****          ((sta_reg & SDIO_FLAG_CMDACT) != 0U ));
ARM GAS  C:\Users\Cihat\AppData\Local\Temp\ccTPXPIa.s 			page 26


 109              		.loc 1 1318 0
 110 001c 11F0450F 		tst	r1, #69
 111 0020 F8D0     		beq	.L9
1317:Drivers/STM32F4xx_HAL_Driver/Src/stm32f4xx_ll_sdmmc.c ****   }while(((sta_reg & (SDIO_FLAG_CCRCFAIL | SDIO_FLAG_CMDREND | SDIO_FLAG_CTIMEOUT)) == 0U) ||
 112              		.loc 1 1317 0 discriminator 1
 113 0022 11F4006F 		tst	r1, #2048
 114 0026 F5D1     		bne	.L9
1319:Drivers/STM32F4xx_HAL_Driver/Src/stm32f4xx_ll_sdmmc.c ****     
1320:Drivers/STM32F4xx_HAL_Driver/Src/stm32f4xx_ll_sdmmc.c ****   if (__SDIO_GET_FLAG(SDIOx, SDIO_FLAG_CTIMEOUT))
 115              		.loc 1 1320 0
 116 0028 436B     		ldr	r3, [r0, #52]
 117 002a 13F0040F 		tst	r3, #4
 118 002e 07D1     		bne	.L13
1321:Drivers/STM32F4xx_HAL_Driver/Src/stm32f4xx_ll_sdmmc.c ****   {
1322:Drivers/STM32F4xx_HAL_Driver/Src/stm32f4xx_ll_sdmmc.c ****     __SDIO_CLEAR_FLAG(SDIOx, SDIO_FLAG_CTIMEOUT);
1323:Drivers/STM32F4xx_HAL_Driver/Src/stm32f4xx_ll_sdmmc.c ****     
1324:Drivers/STM32F4xx_HAL_Driver/Src/stm32f4xx_ll_sdmmc.c ****     return SDMMC_ERROR_CMD_RSP_TIMEOUT;
1325:Drivers/STM32F4xx_HAL_Driver/Src/stm32f4xx_ll_sdmmc.c ****   }
1326:Drivers/STM32F4xx_HAL_Driver/Src/stm32f4xx_ll_sdmmc.c ****   else if (__SDIO_GET_FLAG(SDIOx, SDIO_FLAG_CCRCFAIL))
 119              		.loc 1 1326 0
 120 0030 436B     		ldr	r3, [r0, #52]
 121 0032 13F0010F 		tst	r3, #1
 122 0036 07D1     		bne	.L14
1327:Drivers/STM32F4xx_HAL_Driver/Src/stm32f4xx_ll_sdmmc.c ****   {
1328:Drivers/STM32F4xx_HAL_Driver/Src/stm32f4xx_ll_sdmmc.c ****     __SDIO_CLEAR_FLAG(SDIOx, SDIO_FLAG_CCRCFAIL);
1329:Drivers/STM32F4xx_HAL_Driver/Src/stm32f4xx_ll_sdmmc.c ****     
1330:Drivers/STM32F4xx_HAL_Driver/Src/stm32f4xx_ll_sdmmc.c ****     return SDMMC_ERROR_CMD_CRC_FAIL;
1331:Drivers/STM32F4xx_HAL_Driver/Src/stm32f4xx_ll_sdmmc.c ****   }
1332:Drivers/STM32F4xx_HAL_Driver/Src/stm32f4xx_ll_sdmmc.c ****   else
1333:Drivers/STM32F4xx_HAL_Driver/Src/stm32f4xx_ll_sdmmc.c ****   {
1334:Drivers/STM32F4xx_HAL_Driver/Src/stm32f4xx_ll_sdmmc.c ****     /* No error flag set */
1335:Drivers/STM32F4xx_HAL_Driver/Src/stm32f4xx_ll_sdmmc.c ****     /* Clear all the static flags */
1336:Drivers/STM32F4xx_HAL_Driver/Src/stm32f4xx_ll_sdmmc.c ****     __SDIO_CLEAR_FLAG(SDIOx, SDIO_STATIC_CMD_FLAGS);
 123              		.loc 1 1336 0
 124 0038 C523     		movs	r3, #197
 125 003a 8363     		str	r3, [r0, #56]
1337:Drivers/STM32F4xx_HAL_Driver/Src/stm32f4xx_ll_sdmmc.c ****   }
1338:Drivers/STM32F4xx_HAL_Driver/Src/stm32f4xx_ll_sdmmc.c **** 
1339:Drivers/STM32F4xx_HAL_Driver/Src/stm32f4xx_ll_sdmmc.c ****   return SDMMC_ERROR_NONE;
 126              		.loc 1 1339 0
 127 003c 0020     		movs	r0, #0
 128              	.LVL10:
 129 003e 7047     		bx	lr
 130              	.LVL11:
 131              	.L13:
1322:Drivers/STM32F4xx_HAL_Driver/Src/stm32f4xx_ll_sdmmc.c ****     
 132              		.loc 1 1322 0
 133 0040 0423     		movs	r3, #4
 134 0042 8363     		str	r3, [r0, #56]
1324:Drivers/STM32F4xx_HAL_Driver/Src/stm32f4xx_ll_sdmmc.c ****   }
 135              		.loc 1 1324 0
 136 0044 1846     		mov	r0, r3
 137              	.LVL12:
 138 0046 7047     		bx	lr
 139              	.LVL13:
 140              	.L14:
1328:Drivers/STM32F4xx_HAL_Driver/Src/stm32f4xx_ll_sdmmc.c ****     
ARM GAS  C:\Users\Cihat\AppData\Local\Temp\ccTPXPIa.s 			page 27


 141              		.loc 1 1328 0
 142 0048 0123     		movs	r3, #1
 143 004a 8363     		str	r3, [r0, #56]
1330:Drivers/STM32F4xx_HAL_Driver/Src/stm32f4xx_ll_sdmmc.c ****   }
 144              		.loc 1 1330 0
 145 004c 1846     		mov	r0, r3
 146              	.LVL14:
 147 004e 7047     		bx	lr
 148              	.LVL15:
 149              	.L12:
1314:Drivers/STM32F4xx_HAL_Driver/Src/stm32f4xx_ll_sdmmc.c ****     }
 150              		.loc 1 1314 0
 151 0050 4FF00040 		mov	r0, #-2147483648
 152              	.LVL16:
1340:Drivers/STM32F4xx_HAL_Driver/Src/stm32f4xx_ll_sdmmc.c **** }
 153              		.loc 1 1340 0
 154 0054 7047     		bx	lr
 155              	.L16:
 156 0056 00BF     		.align	2
 157              	.L15:
 158 0058 00000000 		.word	SystemCoreClock
 159 005c D34D6210 		.word	274877907
 160              		.cfi_endproc
 161              	.LFE170:
 163              		.section	.text.SDMMC_GetCmdResp3,"ax",%progbits
 164              		.align	1
 165              		.syntax unified
 166              		.thumb
 167              		.thumb_func
 168              		.fpu fpv4-sp-d16
 170              	SDMMC_GetCmdResp3:
 171              	.LFB171:
1341:Drivers/STM32F4xx_HAL_Driver/Src/stm32f4xx_ll_sdmmc.c **** 
1342:Drivers/STM32F4xx_HAL_Driver/Src/stm32f4xx_ll_sdmmc.c **** /**
1343:Drivers/STM32F4xx_HAL_Driver/Src/stm32f4xx_ll_sdmmc.c ****   * @brief  Checks for error conditions for R3 (OCR) response.
1344:Drivers/STM32F4xx_HAL_Driver/Src/stm32f4xx_ll_sdmmc.c ****   * @param  hsd: SD handle
1345:Drivers/STM32F4xx_HAL_Driver/Src/stm32f4xx_ll_sdmmc.c ****   * @retval SD Card error state
1346:Drivers/STM32F4xx_HAL_Driver/Src/stm32f4xx_ll_sdmmc.c ****   */
1347:Drivers/STM32F4xx_HAL_Driver/Src/stm32f4xx_ll_sdmmc.c **** static uint32_t SDMMC_GetCmdResp3(SDIO_TypeDef *SDIOx)
1348:Drivers/STM32F4xx_HAL_Driver/Src/stm32f4xx_ll_sdmmc.c **** {
 172              		.loc 1 1348 0
 173              		.cfi_startproc
 174              		@ args = 0, pretend = 0, frame = 0
 175              		@ frame_needed = 0, uses_anonymous_args = 0
 176              		@ link register save eliminated.
 177              	.LVL17:
1349:Drivers/STM32F4xx_HAL_Driver/Src/stm32f4xx_ll_sdmmc.c ****   uint32_t sta_reg;
1350:Drivers/STM32F4xx_HAL_Driver/Src/stm32f4xx_ll_sdmmc.c ****   /* 8 is the number of required instructions cycles for the below loop statement.
1351:Drivers/STM32F4xx_HAL_Driver/Src/stm32f4xx_ll_sdmmc.c ****   The SDIO_CMDTIMEOUT is expressed in ms */
1352:Drivers/STM32F4xx_HAL_Driver/Src/stm32f4xx_ll_sdmmc.c ****   uint32_t count = SDIO_CMDTIMEOUT * (SystemCoreClock / 8U /1000U);
 178              		.loc 1 1352 0
 179 0000 114B     		ldr	r3, .L23
 180 0002 1B68     		ldr	r3, [r3]
 181 0004 114A     		ldr	r2, .L23+4
 182 0006 A2FB0323 		umull	r2, r3, r2, r3
 183 000a 5A0A     		lsrs	r2, r3, #9
 184 000c 41F28833 		movw	r3, #5000
ARM GAS  C:\Users\Cihat\AppData\Local\Temp\ccTPXPIa.s 			page 28


 185 0010 03FB02F3 		mul	r3, r3, r2
 186              	.LVL18:
 187              	.L19:
1353:Drivers/STM32F4xx_HAL_Driver/Src/stm32f4xx_ll_sdmmc.c ****   
1354:Drivers/STM32F4xx_HAL_Driver/Src/stm32f4xx_ll_sdmmc.c ****   do
1355:Drivers/STM32F4xx_HAL_Driver/Src/stm32f4xx_ll_sdmmc.c ****   {
1356:Drivers/STM32F4xx_HAL_Driver/Src/stm32f4xx_ll_sdmmc.c ****     if (count-- == 0U)
 188              		.loc 1 1356 0
 189 0014 5A1E     		subs	r2, r3, #1
 190              	.LVL19:
 191 0016 9BB1     		cbz	r3, .L21
1357:Drivers/STM32F4xx_HAL_Driver/Src/stm32f4xx_ll_sdmmc.c ****     {
1358:Drivers/STM32F4xx_HAL_Driver/Src/stm32f4xx_ll_sdmmc.c ****       return SDMMC_ERROR_TIMEOUT;
1359:Drivers/STM32F4xx_HAL_Driver/Src/stm32f4xx_ll_sdmmc.c ****     }
1360:Drivers/STM32F4xx_HAL_Driver/Src/stm32f4xx_ll_sdmmc.c ****     sta_reg = SDIOx->STA;
 192              		.loc 1 1360 0
 193 0018 416B     		ldr	r1, [r0, #52]
 194              	.LVL20:
 195 001a 1346     		mov	r3, r2
1361:Drivers/STM32F4xx_HAL_Driver/Src/stm32f4xx_ll_sdmmc.c ****   }while(((sta_reg & (SDIO_FLAG_CCRCFAIL | SDIO_FLAG_CMDREND | SDIO_FLAG_CTIMEOUT)) == 0U) ||
1362:Drivers/STM32F4xx_HAL_Driver/Src/stm32f4xx_ll_sdmmc.c ****          ((sta_reg & SDIO_FLAG_CMDACT) != 0U ));
 196              		.loc 1 1362 0
 197 001c 11F0450F 		tst	r1, #69
 198 0020 F8D0     		beq	.L19
1361:Drivers/STM32F4xx_HAL_Driver/Src/stm32f4xx_ll_sdmmc.c ****   }while(((sta_reg & (SDIO_FLAG_CCRCFAIL | SDIO_FLAG_CMDREND | SDIO_FLAG_CTIMEOUT)) == 0U) ||
 199              		.loc 1 1361 0 discriminator 1
 200 0022 11F4006F 		tst	r1, #2048
 201 0026 F5D1     		bne	.L19
1363:Drivers/STM32F4xx_HAL_Driver/Src/stm32f4xx_ll_sdmmc.c ****     
1364:Drivers/STM32F4xx_HAL_Driver/Src/stm32f4xx_ll_sdmmc.c ****   if(__SDIO_GET_FLAG(SDIOx, SDIO_FLAG_CTIMEOUT))
 202              		.loc 1 1364 0
 203 0028 436B     		ldr	r3, [r0, #52]
 204 002a 13F0040F 		tst	r3, #4
 205 002e 03D1     		bne	.L22
1365:Drivers/STM32F4xx_HAL_Driver/Src/stm32f4xx_ll_sdmmc.c ****   {
1366:Drivers/STM32F4xx_HAL_Driver/Src/stm32f4xx_ll_sdmmc.c ****     __SDIO_CLEAR_FLAG(SDIOx, SDIO_FLAG_CTIMEOUT);
1367:Drivers/STM32F4xx_HAL_Driver/Src/stm32f4xx_ll_sdmmc.c ****     
1368:Drivers/STM32F4xx_HAL_Driver/Src/stm32f4xx_ll_sdmmc.c ****     return SDMMC_ERROR_CMD_RSP_TIMEOUT;
1369:Drivers/STM32F4xx_HAL_Driver/Src/stm32f4xx_ll_sdmmc.c ****   }
1370:Drivers/STM32F4xx_HAL_Driver/Src/stm32f4xx_ll_sdmmc.c ****   else
1371:Drivers/STM32F4xx_HAL_Driver/Src/stm32f4xx_ll_sdmmc.c ****   {  
1372:Drivers/STM32F4xx_HAL_Driver/Src/stm32f4xx_ll_sdmmc.c ****     /* Clear all the static flags */
1373:Drivers/STM32F4xx_HAL_Driver/Src/stm32f4xx_ll_sdmmc.c ****     __SDIO_CLEAR_FLAG(SDIOx, SDIO_STATIC_CMD_FLAGS);
 206              		.loc 1 1373 0
 207 0030 C523     		movs	r3, #197
 208 0032 8363     		str	r3, [r0, #56]
1374:Drivers/STM32F4xx_HAL_Driver/Src/stm32f4xx_ll_sdmmc.c ****   }
1375:Drivers/STM32F4xx_HAL_Driver/Src/stm32f4xx_ll_sdmmc.c ****   
1376:Drivers/STM32F4xx_HAL_Driver/Src/stm32f4xx_ll_sdmmc.c ****   return SDMMC_ERROR_NONE;
 209              		.loc 1 1376 0
 210 0034 0020     		movs	r0, #0
 211              	.LVL21:
 212 0036 7047     		bx	lr
 213              	.LVL22:
 214              	.L22:
1366:Drivers/STM32F4xx_HAL_Driver/Src/stm32f4xx_ll_sdmmc.c ****     
 215              		.loc 1 1366 0
ARM GAS  C:\Users\Cihat\AppData\Local\Temp\ccTPXPIa.s 			page 29


 216 0038 0423     		movs	r3, #4
 217 003a 8363     		str	r3, [r0, #56]
1368:Drivers/STM32F4xx_HAL_Driver/Src/stm32f4xx_ll_sdmmc.c ****   }
 218              		.loc 1 1368 0
 219 003c 1846     		mov	r0, r3
 220              	.LVL23:
 221 003e 7047     		bx	lr
 222              	.LVL24:
 223              	.L21:
1358:Drivers/STM32F4xx_HAL_Driver/Src/stm32f4xx_ll_sdmmc.c ****     }
 224              		.loc 1 1358 0
 225 0040 4FF00040 		mov	r0, #-2147483648
 226              	.LVL25:
1377:Drivers/STM32F4xx_HAL_Driver/Src/stm32f4xx_ll_sdmmc.c **** }
 227              		.loc 1 1377 0
 228 0044 7047     		bx	lr
 229              	.L24:
 230 0046 00BF     		.align	2
 231              	.L23:
 232 0048 00000000 		.word	SystemCoreClock
 233 004c D34D6210 		.word	274877907
 234              		.cfi_endproc
 235              	.LFE171:
 237              		.section	.text.SDMMC_GetCmdResp7,"ax",%progbits
 238              		.align	1
 239              		.syntax unified
 240              		.thumb
 241              		.thumb_func
 242              		.fpu fpv4-sp-d16
 244              	SDMMC_GetCmdResp7:
 245              	.LFB173:
1378:Drivers/STM32F4xx_HAL_Driver/Src/stm32f4xx_ll_sdmmc.c **** 
1379:Drivers/STM32F4xx_HAL_Driver/Src/stm32f4xx_ll_sdmmc.c **** /**
1380:Drivers/STM32F4xx_HAL_Driver/Src/stm32f4xx_ll_sdmmc.c ****   * @brief  Checks for error conditions for R6 (RCA) response.
1381:Drivers/STM32F4xx_HAL_Driver/Src/stm32f4xx_ll_sdmmc.c ****   * @param  hsd: SD handle
1382:Drivers/STM32F4xx_HAL_Driver/Src/stm32f4xx_ll_sdmmc.c ****   * @param  SD_CMD: The sent command index
1383:Drivers/STM32F4xx_HAL_Driver/Src/stm32f4xx_ll_sdmmc.c ****   * @param  pRCA: Pointer to the variable that will contain the SD card relative 
1384:Drivers/STM32F4xx_HAL_Driver/Src/stm32f4xx_ll_sdmmc.c ****   *         address RCA   
1385:Drivers/STM32F4xx_HAL_Driver/Src/stm32f4xx_ll_sdmmc.c ****   * @retval SD Card error state
1386:Drivers/STM32F4xx_HAL_Driver/Src/stm32f4xx_ll_sdmmc.c ****   */
1387:Drivers/STM32F4xx_HAL_Driver/Src/stm32f4xx_ll_sdmmc.c **** static uint32_t SDMMC_GetCmdResp6(SDIO_TypeDef *SDIOx, uint8_t SD_CMD, uint16_t *pRCA)
1388:Drivers/STM32F4xx_HAL_Driver/Src/stm32f4xx_ll_sdmmc.c **** {
1389:Drivers/STM32F4xx_HAL_Driver/Src/stm32f4xx_ll_sdmmc.c ****   uint32_t response_r1;
1390:Drivers/STM32F4xx_HAL_Driver/Src/stm32f4xx_ll_sdmmc.c ****   uint32_t sta_reg;
1391:Drivers/STM32F4xx_HAL_Driver/Src/stm32f4xx_ll_sdmmc.c **** 
1392:Drivers/STM32F4xx_HAL_Driver/Src/stm32f4xx_ll_sdmmc.c ****   /* 8 is the number of required instructions cycles for the below loop statement.
1393:Drivers/STM32F4xx_HAL_Driver/Src/stm32f4xx_ll_sdmmc.c ****   The SDIO_CMDTIMEOUT is expressed in ms */
1394:Drivers/STM32F4xx_HAL_Driver/Src/stm32f4xx_ll_sdmmc.c ****   uint32_t count = SDIO_CMDTIMEOUT * (SystemCoreClock / 8U /1000U);
1395:Drivers/STM32F4xx_HAL_Driver/Src/stm32f4xx_ll_sdmmc.c ****   
1396:Drivers/STM32F4xx_HAL_Driver/Src/stm32f4xx_ll_sdmmc.c ****   do
1397:Drivers/STM32F4xx_HAL_Driver/Src/stm32f4xx_ll_sdmmc.c ****   {
1398:Drivers/STM32F4xx_HAL_Driver/Src/stm32f4xx_ll_sdmmc.c ****     if (count-- == 0U)
1399:Drivers/STM32F4xx_HAL_Driver/Src/stm32f4xx_ll_sdmmc.c ****     {
1400:Drivers/STM32F4xx_HAL_Driver/Src/stm32f4xx_ll_sdmmc.c ****       return SDMMC_ERROR_TIMEOUT;
1401:Drivers/STM32F4xx_HAL_Driver/Src/stm32f4xx_ll_sdmmc.c ****     }
1402:Drivers/STM32F4xx_HAL_Driver/Src/stm32f4xx_ll_sdmmc.c ****     sta_reg = SDIOx->STA;
1403:Drivers/STM32F4xx_HAL_Driver/Src/stm32f4xx_ll_sdmmc.c ****   }while(((sta_reg & (SDIO_FLAG_CCRCFAIL | SDIO_FLAG_CMDREND | SDIO_FLAG_CTIMEOUT)) == 0U) ||
ARM GAS  C:\Users\Cihat\AppData\Local\Temp\ccTPXPIa.s 			page 30


1404:Drivers/STM32F4xx_HAL_Driver/Src/stm32f4xx_ll_sdmmc.c ****          ((sta_reg & SDIO_FLAG_CMDACT) != 0U ));
1405:Drivers/STM32F4xx_HAL_Driver/Src/stm32f4xx_ll_sdmmc.c ****     
1406:Drivers/STM32F4xx_HAL_Driver/Src/stm32f4xx_ll_sdmmc.c ****   if(__SDIO_GET_FLAG(SDIOx, SDIO_FLAG_CTIMEOUT))
1407:Drivers/STM32F4xx_HAL_Driver/Src/stm32f4xx_ll_sdmmc.c ****   {
1408:Drivers/STM32F4xx_HAL_Driver/Src/stm32f4xx_ll_sdmmc.c ****     __SDIO_CLEAR_FLAG(SDIOx, SDIO_FLAG_CTIMEOUT);
1409:Drivers/STM32F4xx_HAL_Driver/Src/stm32f4xx_ll_sdmmc.c ****     
1410:Drivers/STM32F4xx_HAL_Driver/Src/stm32f4xx_ll_sdmmc.c ****     return SDMMC_ERROR_CMD_RSP_TIMEOUT;
1411:Drivers/STM32F4xx_HAL_Driver/Src/stm32f4xx_ll_sdmmc.c ****   }
1412:Drivers/STM32F4xx_HAL_Driver/Src/stm32f4xx_ll_sdmmc.c ****   else if(__SDIO_GET_FLAG(SDIOx, SDIO_FLAG_CCRCFAIL))
1413:Drivers/STM32F4xx_HAL_Driver/Src/stm32f4xx_ll_sdmmc.c ****   {
1414:Drivers/STM32F4xx_HAL_Driver/Src/stm32f4xx_ll_sdmmc.c ****     __SDIO_CLEAR_FLAG(SDIOx, SDIO_FLAG_CCRCFAIL);
1415:Drivers/STM32F4xx_HAL_Driver/Src/stm32f4xx_ll_sdmmc.c ****     
1416:Drivers/STM32F4xx_HAL_Driver/Src/stm32f4xx_ll_sdmmc.c ****     return SDMMC_ERROR_CMD_CRC_FAIL;
1417:Drivers/STM32F4xx_HAL_Driver/Src/stm32f4xx_ll_sdmmc.c ****   }
1418:Drivers/STM32F4xx_HAL_Driver/Src/stm32f4xx_ll_sdmmc.c ****   else
1419:Drivers/STM32F4xx_HAL_Driver/Src/stm32f4xx_ll_sdmmc.c ****   {
1420:Drivers/STM32F4xx_HAL_Driver/Src/stm32f4xx_ll_sdmmc.c ****     /* Nothing to do */
1421:Drivers/STM32F4xx_HAL_Driver/Src/stm32f4xx_ll_sdmmc.c ****   }
1422:Drivers/STM32F4xx_HAL_Driver/Src/stm32f4xx_ll_sdmmc.c ****   
1423:Drivers/STM32F4xx_HAL_Driver/Src/stm32f4xx_ll_sdmmc.c ****   /* Check response received is of desired command */
1424:Drivers/STM32F4xx_HAL_Driver/Src/stm32f4xx_ll_sdmmc.c ****   if(SDIO_GetCommandResponse(SDIOx) != SD_CMD)
1425:Drivers/STM32F4xx_HAL_Driver/Src/stm32f4xx_ll_sdmmc.c ****   {
1426:Drivers/STM32F4xx_HAL_Driver/Src/stm32f4xx_ll_sdmmc.c ****     return SDMMC_ERROR_CMD_CRC_FAIL;
1427:Drivers/STM32F4xx_HAL_Driver/Src/stm32f4xx_ll_sdmmc.c ****   }
1428:Drivers/STM32F4xx_HAL_Driver/Src/stm32f4xx_ll_sdmmc.c ****   
1429:Drivers/STM32F4xx_HAL_Driver/Src/stm32f4xx_ll_sdmmc.c ****   /* Clear all the static flags */
1430:Drivers/STM32F4xx_HAL_Driver/Src/stm32f4xx_ll_sdmmc.c ****   __SDIO_CLEAR_FLAG(SDIOx, SDIO_STATIC_CMD_FLAGS);
1431:Drivers/STM32F4xx_HAL_Driver/Src/stm32f4xx_ll_sdmmc.c ****   
1432:Drivers/STM32F4xx_HAL_Driver/Src/stm32f4xx_ll_sdmmc.c ****   /* We have received response, retrieve it.  */
1433:Drivers/STM32F4xx_HAL_Driver/Src/stm32f4xx_ll_sdmmc.c ****   response_r1 = SDIO_GetResponse(SDIOx, SDIO_RESP1);
1434:Drivers/STM32F4xx_HAL_Driver/Src/stm32f4xx_ll_sdmmc.c ****   
1435:Drivers/STM32F4xx_HAL_Driver/Src/stm32f4xx_ll_sdmmc.c ****   if((response_r1 & (SDMMC_R6_GENERAL_UNKNOWN_ERROR | SDMMC_R6_ILLEGAL_CMD | SDMMC_R6_COM_CRC_FAILE
1436:Drivers/STM32F4xx_HAL_Driver/Src/stm32f4xx_ll_sdmmc.c ****   {
1437:Drivers/STM32F4xx_HAL_Driver/Src/stm32f4xx_ll_sdmmc.c ****     *pRCA = (uint16_t) (response_r1 >> 16);
1438:Drivers/STM32F4xx_HAL_Driver/Src/stm32f4xx_ll_sdmmc.c ****     
1439:Drivers/STM32F4xx_HAL_Driver/Src/stm32f4xx_ll_sdmmc.c ****     return SDMMC_ERROR_NONE;
1440:Drivers/STM32F4xx_HAL_Driver/Src/stm32f4xx_ll_sdmmc.c ****   }
1441:Drivers/STM32F4xx_HAL_Driver/Src/stm32f4xx_ll_sdmmc.c ****   else if((response_r1 & SDMMC_R6_ILLEGAL_CMD) == SDMMC_R6_ILLEGAL_CMD)
1442:Drivers/STM32F4xx_HAL_Driver/Src/stm32f4xx_ll_sdmmc.c ****   {
1443:Drivers/STM32F4xx_HAL_Driver/Src/stm32f4xx_ll_sdmmc.c ****     return SDMMC_ERROR_ILLEGAL_CMD;
1444:Drivers/STM32F4xx_HAL_Driver/Src/stm32f4xx_ll_sdmmc.c ****   }
1445:Drivers/STM32F4xx_HAL_Driver/Src/stm32f4xx_ll_sdmmc.c ****   else if((response_r1 & SDMMC_R6_COM_CRC_FAILED) == SDMMC_R6_COM_CRC_FAILED)
1446:Drivers/STM32F4xx_HAL_Driver/Src/stm32f4xx_ll_sdmmc.c ****   {
1447:Drivers/STM32F4xx_HAL_Driver/Src/stm32f4xx_ll_sdmmc.c ****     return SDMMC_ERROR_COM_CRC_FAILED;
1448:Drivers/STM32F4xx_HAL_Driver/Src/stm32f4xx_ll_sdmmc.c ****   }
1449:Drivers/STM32F4xx_HAL_Driver/Src/stm32f4xx_ll_sdmmc.c ****   else
1450:Drivers/STM32F4xx_HAL_Driver/Src/stm32f4xx_ll_sdmmc.c ****   {
1451:Drivers/STM32F4xx_HAL_Driver/Src/stm32f4xx_ll_sdmmc.c ****     return SDMMC_ERROR_GENERAL_UNKNOWN_ERR;
1452:Drivers/STM32F4xx_HAL_Driver/Src/stm32f4xx_ll_sdmmc.c ****   }
1453:Drivers/STM32F4xx_HAL_Driver/Src/stm32f4xx_ll_sdmmc.c **** }
1454:Drivers/STM32F4xx_HAL_Driver/Src/stm32f4xx_ll_sdmmc.c **** 
1455:Drivers/STM32F4xx_HAL_Driver/Src/stm32f4xx_ll_sdmmc.c **** /**
1456:Drivers/STM32F4xx_HAL_Driver/Src/stm32f4xx_ll_sdmmc.c ****   * @brief  Checks for error conditions for R7 response.
1457:Drivers/STM32F4xx_HAL_Driver/Src/stm32f4xx_ll_sdmmc.c ****   * @param  hsd: SD handle
1458:Drivers/STM32F4xx_HAL_Driver/Src/stm32f4xx_ll_sdmmc.c ****   * @retval SD Card error state
1459:Drivers/STM32F4xx_HAL_Driver/Src/stm32f4xx_ll_sdmmc.c ****   */
1460:Drivers/STM32F4xx_HAL_Driver/Src/stm32f4xx_ll_sdmmc.c **** static uint32_t SDMMC_GetCmdResp7(SDIO_TypeDef *SDIOx)
ARM GAS  C:\Users\Cihat\AppData\Local\Temp\ccTPXPIa.s 			page 31


1461:Drivers/STM32F4xx_HAL_Driver/Src/stm32f4xx_ll_sdmmc.c **** {
 246              		.loc 1 1461 0
 247              		.cfi_startproc
 248              		@ args = 0, pretend = 0, frame = 0
 249              		@ frame_needed = 0, uses_anonymous_args = 0
 250              		@ link register save eliminated.
 251              	.LVL26:
1462:Drivers/STM32F4xx_HAL_Driver/Src/stm32f4xx_ll_sdmmc.c ****   uint32_t sta_reg;
1463:Drivers/STM32F4xx_HAL_Driver/Src/stm32f4xx_ll_sdmmc.c ****   /* 8 is the number of required instructions cycles for the below loop statement.
1464:Drivers/STM32F4xx_HAL_Driver/Src/stm32f4xx_ll_sdmmc.c ****   The SDIO_CMDTIMEOUT is expressed in ms */
1465:Drivers/STM32F4xx_HAL_Driver/Src/stm32f4xx_ll_sdmmc.c ****   uint32_t count = SDIO_CMDTIMEOUT * (SystemCoreClock / 8U /1000U);
 252              		.loc 1 1465 0
 253 0000 184B     		ldr	r3, .L34
 254 0002 1B68     		ldr	r3, [r3]
 255 0004 184A     		ldr	r2, .L34+4
 256 0006 A2FB0323 		umull	r2, r3, r2, r3
 257 000a 5A0A     		lsrs	r2, r3, #9
 258 000c 41F28833 		movw	r3, #5000
 259 0010 03FB02F3 		mul	r3, r3, r2
 260              	.LVL27:
 261              	.L27:
1466:Drivers/STM32F4xx_HAL_Driver/Src/stm32f4xx_ll_sdmmc.c ****   
1467:Drivers/STM32F4xx_HAL_Driver/Src/stm32f4xx_ll_sdmmc.c ****   do
1468:Drivers/STM32F4xx_HAL_Driver/Src/stm32f4xx_ll_sdmmc.c ****   {
1469:Drivers/STM32F4xx_HAL_Driver/Src/stm32f4xx_ll_sdmmc.c ****     if (count-- == 0U)
 262              		.loc 1 1469 0
 263 0014 5A1E     		subs	r2, r3, #1
 264              	.LVL28:
 265 0016 FBB1     		cbz	r3, .L30
1470:Drivers/STM32F4xx_HAL_Driver/Src/stm32f4xx_ll_sdmmc.c ****     {
1471:Drivers/STM32F4xx_HAL_Driver/Src/stm32f4xx_ll_sdmmc.c ****       return SDMMC_ERROR_TIMEOUT;
1472:Drivers/STM32F4xx_HAL_Driver/Src/stm32f4xx_ll_sdmmc.c ****     }
1473:Drivers/STM32F4xx_HAL_Driver/Src/stm32f4xx_ll_sdmmc.c ****     sta_reg = SDIOx->STA;
 266              		.loc 1 1473 0
 267 0018 416B     		ldr	r1, [r0, #52]
 268              	.LVL29:
 269 001a 1346     		mov	r3, r2
1474:Drivers/STM32F4xx_HAL_Driver/Src/stm32f4xx_ll_sdmmc.c ****   }while(((sta_reg & (SDIO_FLAG_CCRCFAIL | SDIO_FLAG_CMDREND | SDIO_FLAG_CTIMEOUT)) == 0U) ||
1475:Drivers/STM32F4xx_HAL_Driver/Src/stm32f4xx_ll_sdmmc.c ****          ((sta_reg & SDIO_FLAG_CMDACT) != 0U ));
 270              		.loc 1 1475 0
 271 001c 11F0450F 		tst	r1, #69
 272 0020 F8D0     		beq	.L27
1474:Drivers/STM32F4xx_HAL_Driver/Src/stm32f4xx_ll_sdmmc.c ****   }while(((sta_reg & (SDIO_FLAG_CCRCFAIL | SDIO_FLAG_CMDREND | SDIO_FLAG_CTIMEOUT)) == 0U) ||
 273              		.loc 1 1474 0 discriminator 1
 274 0022 11F4006F 		tst	r1, #2048
 275 0026 F5D1     		bne	.L27
1476:Drivers/STM32F4xx_HAL_Driver/Src/stm32f4xx_ll_sdmmc.c ****     
1477:Drivers/STM32F4xx_HAL_Driver/Src/stm32f4xx_ll_sdmmc.c ****   if(__SDIO_GET_FLAG(SDIOx, SDIO_FLAG_CTIMEOUT))
 276              		.loc 1 1477 0
 277 0028 436B     		ldr	r3, [r0, #52]
 278 002a 13F0040F 		tst	r3, #4
 279 002e 0BD1     		bne	.L32
1478:Drivers/STM32F4xx_HAL_Driver/Src/stm32f4xx_ll_sdmmc.c ****   {
1479:Drivers/STM32F4xx_HAL_Driver/Src/stm32f4xx_ll_sdmmc.c ****     /* Card is SD V2.0 compliant */
1480:Drivers/STM32F4xx_HAL_Driver/Src/stm32f4xx_ll_sdmmc.c ****     __SDIO_CLEAR_FLAG(SDIOx, SDIO_FLAG_CTIMEOUT);
1481:Drivers/STM32F4xx_HAL_Driver/Src/stm32f4xx_ll_sdmmc.c ****     
1482:Drivers/STM32F4xx_HAL_Driver/Src/stm32f4xx_ll_sdmmc.c ****     return SDMMC_ERROR_CMD_RSP_TIMEOUT;
ARM GAS  C:\Users\Cihat\AppData\Local\Temp\ccTPXPIa.s 			page 32


1483:Drivers/STM32F4xx_HAL_Driver/Src/stm32f4xx_ll_sdmmc.c ****   }
1484:Drivers/STM32F4xx_HAL_Driver/Src/stm32f4xx_ll_sdmmc.c ****   else if(__SDIO_GET_FLAG(SDIOx, SDIO_FLAG_CCRCFAIL))
 280              		.loc 1 1484 0
 281 0030 436B     		ldr	r3, [r0, #52]
 282 0032 13F0010F 		tst	r3, #1
 283 0036 0BD1     		bne	.L33
1485:Drivers/STM32F4xx_HAL_Driver/Src/stm32f4xx_ll_sdmmc.c ****   {
1486:Drivers/STM32F4xx_HAL_Driver/Src/stm32f4xx_ll_sdmmc.c ****     /* Card is SD V2.0 compliant */
1487:Drivers/STM32F4xx_HAL_Driver/Src/stm32f4xx_ll_sdmmc.c ****     __SDIO_CLEAR_FLAG(SDIOx, SDIO_FLAG_CCRCFAIL);
1488:Drivers/STM32F4xx_HAL_Driver/Src/stm32f4xx_ll_sdmmc.c ****     
1489:Drivers/STM32F4xx_HAL_Driver/Src/stm32f4xx_ll_sdmmc.c ****     return SDMMC_ERROR_CMD_CRC_FAIL;
1490:Drivers/STM32F4xx_HAL_Driver/Src/stm32f4xx_ll_sdmmc.c ****   }
1491:Drivers/STM32F4xx_HAL_Driver/Src/stm32f4xx_ll_sdmmc.c ****   else
1492:Drivers/STM32F4xx_HAL_Driver/Src/stm32f4xx_ll_sdmmc.c ****   {
1493:Drivers/STM32F4xx_HAL_Driver/Src/stm32f4xx_ll_sdmmc.c ****     /* Nothing to do */
1494:Drivers/STM32F4xx_HAL_Driver/Src/stm32f4xx_ll_sdmmc.c ****   }
1495:Drivers/STM32F4xx_HAL_Driver/Src/stm32f4xx_ll_sdmmc.c ****   
1496:Drivers/STM32F4xx_HAL_Driver/Src/stm32f4xx_ll_sdmmc.c ****   if(__SDIO_GET_FLAG(SDIOx, SDIO_FLAG_CMDREND))
 284              		.loc 1 1496 0
 285 0038 436B     		ldr	r3, [r0, #52]
 286 003a 13F0400F 		tst	r3, #64
 287 003e 0ED0     		beq	.L31
1497:Drivers/STM32F4xx_HAL_Driver/Src/stm32f4xx_ll_sdmmc.c ****   {
1498:Drivers/STM32F4xx_HAL_Driver/Src/stm32f4xx_ll_sdmmc.c ****     /* Card is SD V2.0 compliant */
1499:Drivers/STM32F4xx_HAL_Driver/Src/stm32f4xx_ll_sdmmc.c ****     __SDIO_CLEAR_FLAG(SDIOx, SDIO_FLAG_CMDREND);
 288              		.loc 1 1499 0
 289 0040 4023     		movs	r3, #64
 290 0042 8363     		str	r3, [r0, #56]
1500:Drivers/STM32F4xx_HAL_Driver/Src/stm32f4xx_ll_sdmmc.c ****   }
1501:Drivers/STM32F4xx_HAL_Driver/Src/stm32f4xx_ll_sdmmc.c ****   
1502:Drivers/STM32F4xx_HAL_Driver/Src/stm32f4xx_ll_sdmmc.c ****   return SDMMC_ERROR_NONE;
 291              		.loc 1 1502 0
 292 0044 0020     		movs	r0, #0
 293              	.LVL30:
 294 0046 7047     		bx	lr
 295              	.LVL31:
 296              	.L32:
1480:Drivers/STM32F4xx_HAL_Driver/Src/stm32f4xx_ll_sdmmc.c ****     
 297              		.loc 1 1480 0
 298 0048 0423     		movs	r3, #4
 299 004a 8363     		str	r3, [r0, #56]
1482:Drivers/STM32F4xx_HAL_Driver/Src/stm32f4xx_ll_sdmmc.c ****   }
 300              		.loc 1 1482 0
 301 004c 1846     		mov	r0, r3
 302              	.LVL32:
 303 004e 7047     		bx	lr
 304              	.LVL33:
 305              	.L33:
1487:Drivers/STM32F4xx_HAL_Driver/Src/stm32f4xx_ll_sdmmc.c ****     
 306              		.loc 1 1487 0
 307 0050 0123     		movs	r3, #1
 308 0052 8363     		str	r3, [r0, #56]
1489:Drivers/STM32F4xx_HAL_Driver/Src/stm32f4xx_ll_sdmmc.c ****   }
 309              		.loc 1 1489 0
 310 0054 1846     		mov	r0, r3
 311              	.LVL34:
 312 0056 7047     		bx	lr
ARM GAS  C:\Users\Cihat\AppData\Local\Temp\ccTPXPIa.s 			page 33


 313              	.LVL35:
 314              	.L30:
1471:Drivers/STM32F4xx_HAL_Driver/Src/stm32f4xx_ll_sdmmc.c ****     }
 315              		.loc 1 1471 0
 316 0058 4FF00040 		mov	r0, #-2147483648
 317              	.LVL36:
 318 005c 7047     		bx	lr
 319              	.LVL37:
 320              	.L31:
 321              		.loc 1 1502 0
 322 005e 0020     		movs	r0, #0
 323              	.LVL38:
1503:Drivers/STM32F4xx_HAL_Driver/Src/stm32f4xx_ll_sdmmc.c ****   
1504:Drivers/STM32F4xx_HAL_Driver/Src/stm32f4xx_ll_sdmmc.c **** }
 324              		.loc 1 1504 0
 325 0060 7047     		bx	lr
 326              	.L35:
 327 0062 00BF     		.align	2
 328              	.L34:
 329 0064 00000000 		.word	SystemCoreClock
 330 0068 D34D6210 		.word	274877907
 331              		.cfi_endproc
 332              	.LFE173:
 334              		.section	.text.SDIO_Init,"ax",%progbits
 335              		.align	1
 336              		.global	SDIO_Init
 337              		.syntax unified
 338              		.thumb
 339              		.thumb_func
 340              		.fpu fpv4-sp-d16
 342              	SDIO_Init:
 343              	.LFB130:
 213:Drivers/STM32F4xx_HAL_Driver/Src/stm32f4xx_ll_sdmmc.c ****   uint32_t tmpreg = 0;
 344              		.loc 1 213 0
 345              		.cfi_startproc
 346              		@ args = 28, pretend = 16, frame = 0
 347              		@ frame_needed = 0, uses_anonymous_args = 0
 348              		@ link register save eliminated.
 349              	.LVL39:
 350 0000 84B0     		sub	sp, sp, #16
 351              	.LCFI0:
 352              		.cfi_def_cfa_offset 16
 353 0002 10B4     		push	{r4}
 354              	.LCFI1:
 355              		.cfi_def_cfa_offset 20
 356              		.cfi_offset 4, -20
 357 0004 02AC     		add	r4, sp, #8
 358 0006 84E80E00 		stm	r4, {r1, r2, r3}
 359              	.LVL40:
 226:Drivers/STM32F4xx_HAL_Driver/Src/stm32f4xx_ll_sdmmc.c ****              Init.ClockBypass         |\
 360              		.loc 1 226 0
 361 000a 0B46     		mov	r3, r1
 362 000c 039A     		ldr	r2, [sp, #12]
 363 000e 1343     		orrs	r3, r3, r2
 228:Drivers/STM32F4xx_HAL_Driver/Src/stm32f4xx_ll_sdmmc.c ****              Init.BusWide             |\
 364              		.loc 1 228 0
 365 0010 049A     		ldr	r2, [sp, #16]
ARM GAS  C:\Users\Cihat\AppData\Local\Temp\ccTPXPIa.s 			page 34


 227:Drivers/STM32F4xx_HAL_Driver/Src/stm32f4xx_ll_sdmmc.c ****              Init.ClockPowerSave      |\
 366              		.loc 1 227 0
 367 0012 1343     		orrs	r3, r3, r2
 229:Drivers/STM32F4xx_HAL_Driver/Src/stm32f4xx_ll_sdmmc.c ****              Init.HardwareFlowControl |\
 368              		.loc 1 229 0
 369 0014 059A     		ldr	r2, [sp, #20]
 228:Drivers/STM32F4xx_HAL_Driver/Src/stm32f4xx_ll_sdmmc.c ****              Init.BusWide             |\
 370              		.loc 1 228 0
 371 0016 1343     		orrs	r3, r3, r2
 230:Drivers/STM32F4xx_HAL_Driver/Src/stm32f4xx_ll_sdmmc.c ****              Init.ClockDiv
 372              		.loc 1 230 0
 373 0018 069A     		ldr	r2, [sp, #24]
 229:Drivers/STM32F4xx_HAL_Driver/Src/stm32f4xx_ll_sdmmc.c ****              Init.HardwareFlowControl |\
 374              		.loc 1 229 0
 375 001a 1343     		orrs	r3, r3, r2
 231:Drivers/STM32F4xx_HAL_Driver/Src/stm32f4xx_ll_sdmmc.c ****              ); 
 376              		.loc 1 231 0
 377 001c 079A     		ldr	r2, [sp, #28]
 230:Drivers/STM32F4xx_HAL_Driver/Src/stm32f4xx_ll_sdmmc.c ****              Init.ClockDiv
 378              		.loc 1 230 0
 379 001e 1343     		orrs	r3, r3, r2
 380              	.LVL41:
 235:Drivers/STM32F4xx_HAL_Driver/Src/stm32f4xx_ll_sdmmc.c **** 
 381              		.loc 1 235 0
 382 0020 4268     		ldr	r2, [r0, #4]
 383 0022 22F4FD42 		bic	r2, r2, #32384
 384 0026 22F07F02 		bic	r2, r2, #127
 385 002a 1343     		orrs	r3, r3, r2
 386              	.LVL42:
 387 002c 4360     		str	r3, [r0, #4]
 238:Drivers/STM32F4xx_HAL_Driver/Src/stm32f4xx_ll_sdmmc.c **** 
 388              		.loc 1 238 0
 389 002e 0020     		movs	r0, #0
 390              	.LVL43:
 391 0030 5DF8044B 		ldr	r4, [sp], #4
 392              	.LCFI2:
 393              		.cfi_restore 4
 394              		.cfi_def_cfa_offset 16
 395 0034 04B0     		add	sp, sp, #16
 396              	.LCFI3:
 397              		.cfi_def_cfa_offset 0
 398              	.LVL44:
 399 0036 7047     		bx	lr
 400              		.cfi_endproc
 401              	.LFE130:
 403              		.section	.text.SDIO_ReadFIFO,"ax",%progbits
 404              		.align	1
 405              		.global	SDIO_ReadFIFO
 406              		.syntax unified
 407              		.thumb
 408              		.thumb_func
 409              		.fpu fpv4-sp-d16
 411              	SDIO_ReadFIFO:
 412              	.LFB131:
 266:Drivers/STM32F4xx_HAL_Driver/Src/stm32f4xx_ll_sdmmc.c ****   /* Read data from Rx FIFO */ 
 413              		.loc 1 266 0
 414              		.cfi_startproc
ARM GAS  C:\Users\Cihat\AppData\Local\Temp\ccTPXPIa.s 			page 35


 415              		@ args = 0, pretend = 0, frame = 0
 416              		@ frame_needed = 0, uses_anonymous_args = 0
 417              		@ link register save eliminated.
 418              	.LVL45:
 268:Drivers/STM32F4xx_HAL_Driver/Src/stm32f4xx_ll_sdmmc.c **** }
 419              		.loc 1 268 0
 420 0000 D0F88000 		ldr	r0, [r0, #128]
 421              	.LVL46:
 269:Drivers/STM32F4xx_HAL_Driver/Src/stm32f4xx_ll_sdmmc.c **** 
 422              		.loc 1 269 0
 423 0004 7047     		bx	lr
 424              		.cfi_endproc
 425              	.LFE131:
 427              		.section	.text.SDIO_WriteFIFO,"ax",%progbits
 428              		.align	1
 429              		.global	SDIO_WriteFIFO
 430              		.syntax unified
 431              		.thumb
 432              		.thumb_func
 433              		.fpu fpv4-sp-d16
 435              	SDIO_WriteFIFO:
 436              	.LFB132:
 278:Drivers/STM32F4xx_HAL_Driver/Src/stm32f4xx_ll_sdmmc.c ****   /* Write data to FIFO */ 
 437              		.loc 1 278 0
 438              		.cfi_startproc
 439              		@ args = 0, pretend = 0, frame = 0
 440              		@ frame_needed = 0, uses_anonymous_args = 0
 441              		@ link register save eliminated.
 442              	.LVL47:
 280:Drivers/STM32F4xx_HAL_Driver/Src/stm32f4xx_ll_sdmmc.c **** 
 443              		.loc 1 280 0
 444 0000 0B68     		ldr	r3, [r1]
 445 0002 C0F88030 		str	r3, [r0, #128]
 283:Drivers/STM32F4xx_HAL_Driver/Src/stm32f4xx_ll_sdmmc.c **** 
 446              		.loc 1 283 0
 447 0006 0020     		movs	r0, #0
 448              	.LVL48:
 449 0008 7047     		bx	lr
 450              		.cfi_endproc
 451              	.LFE132:
 453              		.section	.text.SDIO_PowerState_ON,"ax",%progbits
 454              		.align	1
 455              		.global	SDIO_PowerState_ON
 456              		.syntax unified
 457              		.thumb
 458              		.thumb_func
 459              		.fpu fpv4-sp-d16
 461              	SDIO_PowerState_ON:
 462              	.LFB133:
 310:Drivers/STM32F4xx_HAL_Driver/Src/stm32f4xx_ll_sdmmc.c ****   /* Set power state to ON */ 
 463              		.loc 1 310 0
 464              		.cfi_startproc
 465              		@ args = 0, pretend = 0, frame = 0
 466              		@ frame_needed = 0, uses_anonymous_args = 0
 467              	.LVL49:
 468 0000 08B5     		push	{r3, lr}
 469              	.LCFI4:
ARM GAS  C:\Users\Cihat\AppData\Local\Temp\ccTPXPIa.s 			page 36


 470              		.cfi_def_cfa_offset 8
 471              		.cfi_offset 3, -8
 472              		.cfi_offset 14, -4
 312:Drivers/STM32F4xx_HAL_Driver/Src/stm32f4xx_ll_sdmmc.c **** 
 473              		.loc 1 312 0
 474 0002 0323     		movs	r3, #3
 475 0004 0360     		str	r3, [r0]
 316:Drivers/STM32F4xx_HAL_Driver/Src/stm32f4xx_ll_sdmmc.c ****   
 476              		.loc 1 316 0
 477 0006 0220     		movs	r0, #2
 478              	.LVL50:
 479 0008 FFF7FEFF 		bl	HAL_Delay
 480              	.LVL51:
 319:Drivers/STM32F4xx_HAL_Driver/Src/stm32f4xx_ll_sdmmc.c **** 
 481              		.loc 1 319 0
 482 000c 0020     		movs	r0, #0
 483 000e 08BD     		pop	{r3, pc}
 484              		.cfi_endproc
 485              	.LFE133:
 487              		.section	.text.SDIO_PowerState_OFF,"ax",%progbits
 488              		.align	1
 489              		.global	SDIO_PowerState_OFF
 490              		.syntax unified
 491              		.thumb
 492              		.thumb_func
 493              		.fpu fpv4-sp-d16
 495              	SDIO_PowerState_OFF:
 496              	.LFB134:
 327:Drivers/STM32F4xx_HAL_Driver/Src/stm32f4xx_ll_sdmmc.c ****   /* Set power state to OFF */
 497              		.loc 1 327 0
 498              		.cfi_startproc
 499              		@ args = 0, pretend = 0, frame = 0
 500              		@ frame_needed = 0, uses_anonymous_args = 0
 501              		@ link register save eliminated.
 502              	.LVL52:
 329:Drivers/STM32F4xx_HAL_Driver/Src/stm32f4xx_ll_sdmmc.c ****   
 503              		.loc 1 329 0
 504 0000 0023     		movs	r3, #0
 505 0002 0360     		str	r3, [r0]
 332:Drivers/STM32F4xx_HAL_Driver/Src/stm32f4xx_ll_sdmmc.c **** 
 506              		.loc 1 332 0
 507 0004 1846     		mov	r0, r3
 508              	.LVL53:
 509 0006 7047     		bx	lr
 510              		.cfi_endproc
 511              	.LFE134:
 513              		.section	.text.SDIO_GetPowerState,"ax",%progbits
 514              		.align	1
 515              		.global	SDIO_GetPowerState
 516              		.syntax unified
 517              		.thumb
 518              		.thumb_func
 519              		.fpu fpv4-sp-d16
 521              	SDIO_GetPowerState:
 522              	.LFB135:
 344:Drivers/STM32F4xx_HAL_Driver/Src/stm32f4xx_ll_sdmmc.c ****   return (SDIOx->POWER & SDIO_POWER_PWRCTRL);
 523              		.loc 1 344 0
ARM GAS  C:\Users\Cihat\AppData\Local\Temp\ccTPXPIa.s 			page 37


 524              		.cfi_startproc
 525              		@ args = 0, pretend = 0, frame = 0
 526              		@ frame_needed = 0, uses_anonymous_args = 0
 527              		@ link register save eliminated.
 528              	.LVL54:
 345:Drivers/STM32F4xx_HAL_Driver/Src/stm32f4xx_ll_sdmmc.c **** }
 529              		.loc 1 345 0
 530 0000 0068     		ldr	r0, [r0]
 531              	.LVL55:
 346:Drivers/STM32F4xx_HAL_Driver/Src/stm32f4xx_ll_sdmmc.c **** 
 532              		.loc 1 346 0
 533 0002 00F00300 		and	r0, r0, #3
 534 0006 7047     		bx	lr
 535              		.cfi_endproc
 536              	.LFE135:
 538              		.section	.text.SDIO_SendCommand,"ax",%progbits
 539              		.align	1
 540              		.global	SDIO_SendCommand
 541              		.syntax unified
 542              		.thumb
 543              		.thumb_func
 544              		.fpu fpv4-sp-d16
 546              	SDIO_SendCommand:
 547              	.LFB136:
 357:Drivers/STM32F4xx_HAL_Driver/Src/stm32f4xx_ll_sdmmc.c ****   uint32_t tmpreg = 0;
 548              		.loc 1 357 0
 549              		.cfi_startproc
 550              		@ args = 0, pretend = 0, frame = 0
 551              		@ frame_needed = 0, uses_anonymous_args = 0
 552              		@ link register save eliminated.
 553              	.LVL56:
 367:Drivers/STM32F4xx_HAL_Driver/Src/stm32f4xx_ll_sdmmc.c **** 
 554              		.loc 1 367 0
 555 0000 0B68     		ldr	r3, [r1]
 556 0002 8360     		str	r3, [r0, #8]
 370:Drivers/STM32F4xx_HAL_Driver/Src/stm32f4xx_ll_sdmmc.c ****                        Command->Response         |\
 557              		.loc 1 370 0
 558 0004 4B68     		ldr	r3, [r1, #4]
 371:Drivers/STM32F4xx_HAL_Driver/Src/stm32f4xx_ll_sdmmc.c ****                        Command->WaitForInterrupt |\
 559              		.loc 1 371 0
 560 0006 8A68     		ldr	r2, [r1, #8]
 370:Drivers/STM32F4xx_HAL_Driver/Src/stm32f4xx_ll_sdmmc.c ****                        Command->Response         |\
 561              		.loc 1 370 0
 562 0008 1343     		orrs	r3, r3, r2
 372:Drivers/STM32F4xx_HAL_Driver/Src/stm32f4xx_ll_sdmmc.c ****                        Command->CPSM);
 563              		.loc 1 372 0
 564 000a CA68     		ldr	r2, [r1, #12]
 371:Drivers/STM32F4xx_HAL_Driver/Src/stm32f4xx_ll_sdmmc.c ****                        Command->WaitForInterrupt |\
 565              		.loc 1 371 0
 566 000c 1343     		orrs	r3, r3, r2
 373:Drivers/STM32F4xx_HAL_Driver/Src/stm32f4xx_ll_sdmmc.c ****   
 567              		.loc 1 373 0
 568 000e 0A69     		ldr	r2, [r1, #16]
 372:Drivers/STM32F4xx_HAL_Driver/Src/stm32f4xx_ll_sdmmc.c ****                        Command->CPSM);
 569              		.loc 1 372 0
 570 0010 1343     		orrs	r3, r3, r2
 571              	.LVL57:
ARM GAS  C:\Users\Cihat\AppData\Local\Temp\ccTPXPIa.s 			page 38


 376:Drivers/STM32F4xx_HAL_Driver/Src/stm32f4xx_ll_sdmmc.c ****   
 572              		.loc 1 376 0
 573 0012 C268     		ldr	r2, [r0, #12]
 574 0014 22F47F62 		bic	r2, r2, #4080
 575 0018 22F00F02 		bic	r2, r2, #15
 576 001c 1343     		orrs	r3, r3, r2
 577              	.LVL58:
 578 001e C360     		str	r3, [r0, #12]
 579              	.LVL59:
 379:Drivers/STM32F4xx_HAL_Driver/Src/stm32f4xx_ll_sdmmc.c **** 
 580              		.loc 1 379 0
 581 0020 0020     		movs	r0, #0
 582              	.LVL60:
 583 0022 7047     		bx	lr
 584              		.cfi_endproc
 585              	.LFE136:
 587              		.section	.text.SDIO_GetCommandResponse,"ax",%progbits
 588              		.align	1
 589              		.global	SDIO_GetCommandResponse
 590              		.syntax unified
 591              		.thumb
 592              		.thumb_func
 593              		.fpu fpv4-sp-d16
 595              	SDIO_GetCommandResponse:
 596              	.LFB137:
 387:Drivers/STM32F4xx_HAL_Driver/Src/stm32f4xx_ll_sdmmc.c ****   return (uint8_t)(SDIOx->RESPCMD);
 597              		.loc 1 387 0
 598              		.cfi_startproc
 599              		@ args = 0, pretend = 0, frame = 0
 600              		@ frame_needed = 0, uses_anonymous_args = 0
 601              		@ link register save eliminated.
 602              	.LVL61:
 388:Drivers/STM32F4xx_HAL_Driver/Src/stm32f4xx_ll_sdmmc.c **** }
 603              		.loc 1 388 0
 604 0000 0069     		ldr	r0, [r0, #16]
 605              	.LVL62:
 389:Drivers/STM32F4xx_HAL_Driver/Src/stm32f4xx_ll_sdmmc.c **** 
 606              		.loc 1 389 0
 607 0002 C0B2     		uxtb	r0, r0
 608 0004 7047     		bx	lr
 609              		.cfi_endproc
 610              	.LFE137:
 612              		.section	.text.SDIO_GetResponse,"ax",%progbits
 613              		.align	1
 614              		.global	SDIO_GetResponse
 615              		.syntax unified
 616              		.thumb
 617              		.thumb_func
 618              		.fpu fpv4-sp-d16
 620              	SDIO_GetResponse:
 621              	.LFB138:
 404:Drivers/STM32F4xx_HAL_Driver/Src/stm32f4xx_ll_sdmmc.c ****   uint32_t tmp;
 622              		.loc 1 404 0
 623              		.cfi_startproc
 624              		@ args = 0, pretend = 0, frame = 0
 625              		@ frame_needed = 0, uses_anonymous_args = 0
 626              		@ link register save eliminated.
ARM GAS  C:\Users\Cihat\AppData\Local\Temp\ccTPXPIa.s 			page 39


 627              	.LVL63:
 411:Drivers/STM32F4xx_HAL_Driver/Src/stm32f4xx_ll_sdmmc.c ****   
 628              		.loc 1 411 0
 629 0000 1430     		adds	r0, r0, #20
 630              	.LVL64:
 413:Drivers/STM32F4xx_HAL_Driver/Src/stm32f4xx_ll_sdmmc.c **** }  
 631              		.loc 1 413 0
 632 0002 4058     		ldr	r0, [r0, r1]
 633              	.LVL65:
 414:Drivers/STM32F4xx_HAL_Driver/Src/stm32f4xx_ll_sdmmc.c **** 
 634              		.loc 1 414 0
 635 0004 7047     		bx	lr
 636              		.cfi_endproc
 637              	.LFE138:
 639              		.section	.text.SDMMC_GetCmdResp1,"ax",%progbits
 640              		.align	1
 641              		.syntax unified
 642              		.thumb
 643              		.thumb_func
 644              		.fpu fpv4-sp-d16
 646              	SDMMC_GetCmdResp1:
 647              	.LFB169:
1169:Drivers/STM32F4xx_HAL_Driver/Src/stm32f4xx_ll_sdmmc.c ****   uint32_t response_r1;
 648              		.loc 1 1169 0
 649              		.cfi_startproc
 650              		@ args = 0, pretend = 0, frame = 0
 651              		@ frame_needed = 0, uses_anonymous_args = 0
 652              	.LVL66:
 653 0000 38B5     		push	{r3, r4, r5, lr}
 654              	.LCFI5:
 655              		.cfi_def_cfa_offset 16
 656              		.cfi_offset 3, -16
 657              		.cfi_offset 4, -12
 658              		.cfi_offset 5, -8
 659              		.cfi_offset 14, -4
1175:Drivers/STM32F4xx_HAL_Driver/Src/stm32f4xx_ll_sdmmc.c ****   
 660              		.loc 1 1175 0
 661 0002 524B     		ldr	r3, .L76
 662 0004 1B68     		ldr	r3, [r3]
 663 0006 524C     		ldr	r4, .L76+4
 664 0008 A4FB0343 		umull	r4, r3, r4, r3
 665 000c 5B0A     		lsrs	r3, r3, #9
 666 000e 02FB03F2 		mul	r2, r2, r3
 667              	.LVL67:
 668              	.L49:
1179:Drivers/STM32F4xx_HAL_Driver/Src/stm32f4xx_ll_sdmmc.c ****     {
 669              		.loc 1 1179 0
 670 0012 531E     		subs	r3, r2, #1
 671              	.LVL68:
 672 0014 002A     		cmp	r2, #0
 673 0016 60D0     		beq	.L52
1183:Drivers/STM32F4xx_HAL_Driver/Src/stm32f4xx_ll_sdmmc.c ****   }while(((sta_reg & (SDIO_FLAG_CCRCFAIL | SDIO_FLAG_CMDREND | SDIO_FLAG_CTIMEOUT)) == 0U) ||
 674              		.loc 1 1183 0
 675 0018 446B     		ldr	r4, [r0, #52]
 676              	.LVL69:
 677 001a 1A46     		mov	r2, r3
1185:Drivers/STM32F4xx_HAL_Driver/Src/stm32f4xx_ll_sdmmc.c ****     
ARM GAS  C:\Users\Cihat\AppData\Local\Temp\ccTPXPIa.s 			page 40


 678              		.loc 1 1185 0
 679 001c 14F0450F 		tst	r4, #69
 680 0020 F7D0     		beq	.L49
1184:Drivers/STM32F4xx_HAL_Driver/Src/stm32f4xx_ll_sdmmc.c ****          ((sta_reg & SDIO_FLAG_CMDACT) != 0U ));
 681              		.loc 1 1184 0 discriminator 1
 682 0022 14F4006F 		tst	r4, #2048
 683 0026 F4D1     		bne	.L49
1187:Drivers/STM32F4xx_HAL_Driver/Src/stm32f4xx_ll_sdmmc.c ****   {
 684              		.loc 1 1187 0
 685 0028 436B     		ldr	r3, [r0, #52]
 686              	.LVL70:
 687 002a 13F0040F 		tst	r3, #4
 688 002e 07D1     		bne	.L74
1193:Drivers/STM32F4xx_HAL_Driver/Src/stm32f4xx_ll_sdmmc.c ****   {
 689              		.loc 1 1193 0
 690 0030 436B     		ldr	r3, [r0, #52]
 691 0032 13F0010F 		tst	r3, #1
 692 0036 07D0     		beq	.L51
1195:Drivers/STM32F4xx_HAL_Driver/Src/stm32f4xx_ll_sdmmc.c ****     
 693              		.loc 1 1195 0
 694 0038 0123     		movs	r3, #1
 695 003a 8363     		str	r3, [r0, #56]
1197:Drivers/STM32F4xx_HAL_Driver/Src/stm32f4xx_ll_sdmmc.c ****   }
 696              		.loc 1 1197 0
 697 003c 1846     		mov	r0, r3
 698              	.LVL71:
 699 003e 4EE0     		b	.L47
 700              	.LVL72:
 701              	.L74:
1189:Drivers/STM32F4xx_HAL_Driver/Src/stm32f4xx_ll_sdmmc.c ****     
 702              		.loc 1 1189 0
 703 0040 0423     		movs	r3, #4
 704 0042 8363     		str	r3, [r0, #56]
1191:Drivers/STM32F4xx_HAL_Driver/Src/stm32f4xx_ll_sdmmc.c ****   }
 705              		.loc 1 1191 0
 706 0044 1846     		mov	r0, r3
 707              	.LVL73:
 708 0046 4AE0     		b	.L47
 709              	.LVL74:
 710              	.L51:
 711 0048 0D46     		mov	r5, r1
 712 004a 0446     		mov	r4, r0
 713              	.LVL75:
1205:Drivers/STM32F4xx_HAL_Driver/Src/stm32f4xx_ll_sdmmc.c ****   
 714              		.loc 1 1205 0
 715 004c C523     		movs	r3, #197
 716 004e 8363     		str	r3, [r0, #56]
1208:Drivers/STM32F4xx_HAL_Driver/Src/stm32f4xx_ll_sdmmc.c ****   {
 717              		.loc 1 1208 0
 718 0050 FFF7FEFF 		bl	SDIO_GetCommandResponse
 719              	.LVL76:
 720 0054 A842     		cmp	r0, r5
 721 0056 01D0     		beq	.L75
1210:Drivers/STM32F4xx_HAL_Driver/Src/stm32f4xx_ll_sdmmc.c ****   }
 722              		.loc 1 1210 0
 723 0058 0120     		movs	r0, #1
 724 005a 40E0     		b	.L47
ARM GAS  C:\Users\Cihat\AppData\Local\Temp\ccTPXPIa.s 			page 41


 725              	.L75:
1214:Drivers/STM32F4xx_HAL_Driver/Src/stm32f4xx_ll_sdmmc.c ****   
 726              		.loc 1 1214 0
 727 005c 0021     		movs	r1, #0
 728 005e 2046     		mov	r0, r4
 729 0060 FFF7FEFF 		bl	SDIO_GetResponse
 730              	.LVL77:
1216:Drivers/STM32F4xx_HAL_Driver/Src/stm32f4xx_ll_sdmmc.c ****   {
 731              		.loc 1 1216 0
 732 0064 3B4B     		ldr	r3, .L76+8
 733 0066 0340     		ands	r3, r3, r0
 734 0068 D3B3     		cbz	r3, .L54
1220:Drivers/STM32F4xx_HAL_Driver/Src/stm32f4xx_ll_sdmmc.c ****   {
 735              		.loc 1 1220 0
 736 006a 0028     		cmp	r0, #0
 737 006c 3ADB     		blt	.L55
1224:Drivers/STM32F4xx_HAL_Driver/Src/stm32f4xx_ll_sdmmc.c ****   {
 738              		.loc 1 1224 0
 739 006e 10F0804F 		tst	r0, #1073741824
 740 0072 3AD1     		bne	.L56
1228:Drivers/STM32F4xx_HAL_Driver/Src/stm32f4xx_ll_sdmmc.c ****   {
 741              		.loc 1 1228 0
 742 0074 10F0005F 		tst	r0, #536870912
 743 0078 39D1     		bne	.L57
1232:Drivers/STM32F4xx_HAL_Driver/Src/stm32f4xx_ll_sdmmc.c ****   {
 744              		.loc 1 1232 0
 745 007a 10F0805F 		tst	r0, #268435456
 746 007e 38D1     		bne	.L58
1236:Drivers/STM32F4xx_HAL_Driver/Src/stm32f4xx_ll_sdmmc.c ****   {
 747              		.loc 1 1236 0
 748 0080 10F0006F 		tst	r0, #134217728
 749 0084 38D1     		bne	.L59
1240:Drivers/STM32F4xx_HAL_Driver/Src/stm32f4xx_ll_sdmmc.c ****   {
 750              		.loc 1 1240 0
 751 0086 10F0806F 		tst	r0, #67108864
 752 008a 38D1     		bne	.L60
1244:Drivers/STM32F4xx_HAL_Driver/Src/stm32f4xx_ll_sdmmc.c ****   {
 753              		.loc 1 1244 0
 754 008c 10F0807F 		tst	r0, #16777216
 755 0090 38D1     		bne	.L61
1248:Drivers/STM32F4xx_HAL_Driver/Src/stm32f4xx_ll_sdmmc.c ****   {
 756              		.loc 1 1248 0
 757 0092 10F4000F 		tst	r0, #8388608
 758 0096 38D1     		bne	.L62
1252:Drivers/STM32F4xx_HAL_Driver/Src/stm32f4xx_ll_sdmmc.c ****   {
 759              		.loc 1 1252 0
 760 0098 10F4800F 		tst	r0, #4194304
 761 009c 38D1     		bne	.L63
1256:Drivers/STM32F4xx_HAL_Driver/Src/stm32f4xx_ll_sdmmc.c ****   {
 762              		.loc 1 1256 0
 763 009e 10F4001F 		tst	r0, #2097152
 764 00a2 38D1     		bne	.L64
1260:Drivers/STM32F4xx_HAL_Driver/Src/stm32f4xx_ll_sdmmc.c ****   {
 765              		.loc 1 1260 0
 766 00a4 10F4801F 		tst	r0, #1048576
 767 00a8 38D1     		bne	.L65
1264:Drivers/STM32F4xx_HAL_Driver/Src/stm32f4xx_ll_sdmmc.c ****   {
ARM GAS  C:\Users\Cihat\AppData\Local\Temp\ccTPXPIa.s 			page 42


 768              		.loc 1 1264 0
 769 00aa 10F4802F 		tst	r0, #262144
 770 00ae 38D1     		bne	.L66
1268:Drivers/STM32F4xx_HAL_Driver/Src/stm32f4xx_ll_sdmmc.c ****   {
 771              		.loc 1 1268 0
 772 00b0 10F4003F 		tst	r0, #131072
 773 00b4 38D1     		bne	.L67
1272:Drivers/STM32F4xx_HAL_Driver/Src/stm32f4xx_ll_sdmmc.c ****   {
 774              		.loc 1 1272 0
 775 00b6 10F4803F 		tst	r0, #65536
 776 00ba 38D1     		bne	.L68
1276:Drivers/STM32F4xx_HAL_Driver/Src/stm32f4xx_ll_sdmmc.c ****   {
 777              		.loc 1 1276 0
 778 00bc 10F4004F 		tst	r0, #32768
 779 00c0 38D1     		bne	.L69
1280:Drivers/STM32F4xx_HAL_Driver/Src/stm32f4xx_ll_sdmmc.c ****   {
 780              		.loc 1 1280 0
 781 00c2 10F4804F 		tst	r0, #16384
 782 00c6 38D1     		bne	.L70
1284:Drivers/STM32F4xx_HAL_Driver/Src/stm32f4xx_ll_sdmmc.c ****   {
 783              		.loc 1 1284 0
 784 00c8 10F4005F 		tst	r0, #8192
 785 00cc 38D1     		bne	.L71
1288:Drivers/STM32F4xx_HAL_Driver/Src/stm32f4xx_ll_sdmmc.c ****   {
 786              		.loc 1 1288 0
 787 00ce 10F0080F 		tst	r0, #8
 788 00d2 38D0     		beq	.L72
1290:Drivers/STM32F4xx_HAL_Driver/Src/stm32f4xx_ll_sdmmc.c ****   }
 789              		.loc 1 1290 0
 790 00d4 4FF40000 		mov	r0, #8388608
 791              	.LVL78:
 792 00d8 01E0     		b	.L47
 793              	.LVL79:
 794              	.L52:
1181:Drivers/STM32F4xx_HAL_Driver/Src/stm32f4xx_ll_sdmmc.c ****     }
 795              		.loc 1 1181 0
 796 00da 4FF00040 		mov	r0, #-2147483648
 797              	.LVL80:
 798              	.L47:
1296:Drivers/STM32F4xx_HAL_Driver/Src/stm32f4xx_ll_sdmmc.c **** 
 799              		.loc 1 1296 0
 800 00de 38BD     		pop	{r3, r4, r5, pc}
 801              	.LVL81:
 802              	.L54:
1218:Drivers/STM32F4xx_HAL_Driver/Src/stm32f4xx_ll_sdmmc.c ****   }
 803              		.loc 1 1218 0
 804 00e0 0020     		movs	r0, #0
 805              	.LVL82:
 806 00e2 FCE7     		b	.L47
 807              	.LVL83:
 808              	.L55:
1222:Drivers/STM32F4xx_HAL_Driver/Src/stm32f4xx_ll_sdmmc.c ****   }
 809              		.loc 1 1222 0
 810 00e4 4FF00070 		mov	r0, #33554432
 811              	.LVL84:
 812 00e8 F9E7     		b	.L47
 813              	.LVL85:
ARM GAS  C:\Users\Cihat\AppData\Local\Temp\ccTPXPIa.s 			page 43


 814              	.L56:
1226:Drivers/STM32F4xx_HAL_Driver/Src/stm32f4xx_ll_sdmmc.c ****   }
 815              		.loc 1 1226 0
 816 00ea 4020     		movs	r0, #64
 817              	.LVL86:
 818 00ec F7E7     		b	.L47
 819              	.LVL87:
 820              	.L57:
1230:Drivers/STM32F4xx_HAL_Driver/Src/stm32f4xx_ll_sdmmc.c ****   }
 821              		.loc 1 1230 0
 822 00ee 8020     		movs	r0, #128
 823              	.LVL88:
 824 00f0 F5E7     		b	.L47
 825              	.LVL89:
 826              	.L58:
1234:Drivers/STM32F4xx_HAL_Driver/Src/stm32f4xx_ll_sdmmc.c ****   }
 827              		.loc 1 1234 0
 828 00f2 4FF48070 		mov	r0, #256
 829              	.LVL90:
 830 00f6 F2E7     		b	.L47
 831              	.LVL91:
 832              	.L59:
1238:Drivers/STM32F4xx_HAL_Driver/Src/stm32f4xx_ll_sdmmc.c ****   }
 833              		.loc 1 1238 0
 834 00f8 4FF40070 		mov	r0, #512
 835              	.LVL92:
 836 00fc EFE7     		b	.L47
 837              	.LVL93:
 838              	.L60:
1242:Drivers/STM32F4xx_HAL_Driver/Src/stm32f4xx_ll_sdmmc.c ****   }
 839              		.loc 1 1242 0
 840 00fe 4FF48060 		mov	r0, #1024
 841              	.LVL94:
 842 0102 ECE7     		b	.L47
 843              	.LVL95:
 844              	.L61:
1246:Drivers/STM32F4xx_HAL_Driver/Src/stm32f4xx_ll_sdmmc.c ****   }
 845              		.loc 1 1246 0
 846 0104 4FF40060 		mov	r0, #2048
 847              	.LVL96:
 848 0108 E9E7     		b	.L47
 849              	.LVL97:
 850              	.L62:
1250:Drivers/STM32F4xx_HAL_Driver/Src/stm32f4xx_ll_sdmmc.c ****   }
 851              		.loc 1 1250 0
 852 010a 4FF48050 		mov	r0, #4096
 853              	.LVL98:
 854 010e E6E7     		b	.L47
 855              	.LVL99:
 856              	.L63:
1254:Drivers/STM32F4xx_HAL_Driver/Src/stm32f4xx_ll_sdmmc.c ****   }
 857              		.loc 1 1254 0
 858 0110 4FF40050 		mov	r0, #8192
 859              	.LVL100:
 860 0114 E3E7     		b	.L47
 861              	.LVL101:
 862              	.L64:
ARM GAS  C:\Users\Cihat\AppData\Local\Temp\ccTPXPIa.s 			page 44


1258:Drivers/STM32F4xx_HAL_Driver/Src/stm32f4xx_ll_sdmmc.c ****   }
 863              		.loc 1 1258 0
 864 0116 4FF48040 		mov	r0, #16384
 865              	.LVL102:
 866 011a E0E7     		b	.L47
 867              	.LVL103:
 868              	.L65:
1262:Drivers/STM32F4xx_HAL_Driver/Src/stm32f4xx_ll_sdmmc.c ****   }
 869              		.loc 1 1262 0
 870 011c 4FF40040 		mov	r0, #32768
 871              	.LVL104:
 872 0120 DDE7     		b	.L47
 873              	.LVL105:
 874              	.L66:
1266:Drivers/STM32F4xx_HAL_Driver/Src/stm32f4xx_ll_sdmmc.c ****   }
 875              		.loc 1 1266 0
 876 0122 4FF40030 		mov	r0, #131072
 877              	.LVL106:
 878 0126 DAE7     		b	.L47
 879              	.LVL107:
 880              	.L67:
1270:Drivers/STM32F4xx_HAL_Driver/Src/stm32f4xx_ll_sdmmc.c ****   }
 881              		.loc 1 1270 0
 882 0128 4FF48020 		mov	r0, #262144
 883              	.LVL108:
 884 012c D7E7     		b	.L47
 885              	.LVL109:
 886              	.L68:
1274:Drivers/STM32F4xx_HAL_Driver/Src/stm32f4xx_ll_sdmmc.c ****   }
 887              		.loc 1 1274 0
 888 012e 4FF40020 		mov	r0, #524288
 889              	.LVL110:
 890 0132 D4E7     		b	.L47
 891              	.LVL111:
 892              	.L69:
1278:Drivers/STM32F4xx_HAL_Driver/Src/stm32f4xx_ll_sdmmc.c ****   }
 893              		.loc 1 1278 0
 894 0134 4FF48010 		mov	r0, #1048576
 895              	.LVL112:
 896 0138 D1E7     		b	.L47
 897              	.LVL113:
 898              	.L70:
1282:Drivers/STM32F4xx_HAL_Driver/Src/stm32f4xx_ll_sdmmc.c ****   }
 899              		.loc 1 1282 0
 900 013a 4FF40010 		mov	r0, #2097152
 901              	.LVL114:
 902 013e CEE7     		b	.L47
 903              	.LVL115:
 904              	.L71:
1286:Drivers/STM32F4xx_HAL_Driver/Src/stm32f4xx_ll_sdmmc.c ****   }
 905              		.loc 1 1286 0
 906 0140 4FF48000 		mov	r0, #4194304
 907              	.LVL116:
 908 0144 CBE7     		b	.L47
 909              	.LVL117:
 910              	.L72:
1294:Drivers/STM32F4xx_HAL_Driver/Src/stm32f4xx_ll_sdmmc.c ****   }
ARM GAS  C:\Users\Cihat\AppData\Local\Temp\ccTPXPIa.s 			page 45


 911              		.loc 1 1294 0
 912 0146 4FF48030 		mov	r0, #65536
 913              	.LVL118:
 914 014a C8E7     		b	.L47
 915              	.L77:
 916              		.align	2
 917              	.L76:
 918 014c 00000000 		.word	SystemCoreClock
 919 0150 D34D6210 		.word	274877907
 920 0154 08E0FFFD 		.word	-33562616
 921              		.cfi_endproc
 922              	.LFE169:
 924              		.section	.text.SDMMC_GetCmdResp6,"ax",%progbits
 925              		.align	1
 926              		.syntax unified
 927              		.thumb
 928              		.thumb_func
 929              		.fpu fpv4-sp-d16
 931              	SDMMC_GetCmdResp6:
 932              	.LFB172:
1388:Drivers/STM32F4xx_HAL_Driver/Src/stm32f4xx_ll_sdmmc.c ****   uint32_t response_r1;
 933              		.loc 1 1388 0
 934              		.cfi_startproc
 935              		@ args = 0, pretend = 0, frame = 0
 936              		@ frame_needed = 0, uses_anonymous_args = 0
 937              	.LVL119:
 938 0000 70B5     		push	{r4, r5, r6, lr}
 939              	.LCFI6:
 940              		.cfi_def_cfa_offset 16
 941              		.cfi_offset 4, -16
 942              		.cfi_offset 5, -12
 943              		.cfi_offset 6, -8
 944              		.cfi_offset 14, -4
1394:Drivers/STM32F4xx_HAL_Driver/Src/stm32f4xx_ll_sdmmc.c ****   
 945              		.loc 1 1394 0
 946 0002 264B     		ldr	r3, .L92
 947 0004 1B68     		ldr	r3, [r3]
 948 0006 264C     		ldr	r4, .L92+4
 949 0008 A4FB0343 		umull	r4, r3, r4, r3
 950 000c 5C0A     		lsrs	r4, r3, #9
 951 000e 41F28833 		movw	r3, #5000
 952 0012 03FB04F3 		mul	r3, r3, r4
 953              	.LVL120:
 954              	.L80:
1398:Drivers/STM32F4xx_HAL_Driver/Src/stm32f4xx_ll_sdmmc.c ****     {
 955              		.loc 1 1398 0
 956 0016 5C1E     		subs	r4, r3, #1
 957              	.LVL121:
 958 0018 B3B3     		cbz	r3, .L84
1402:Drivers/STM32F4xx_HAL_Driver/Src/stm32f4xx_ll_sdmmc.c ****   }while(((sta_reg & (SDIO_FLAG_CCRCFAIL | SDIO_FLAG_CMDREND | SDIO_FLAG_CTIMEOUT)) == 0U) ||
 959              		.loc 1 1402 0
 960 001a 456B     		ldr	r5, [r0, #52]
 961              	.LVL122:
 962 001c 2346     		mov	r3, r4
1404:Drivers/STM32F4xx_HAL_Driver/Src/stm32f4xx_ll_sdmmc.c ****     
 963              		.loc 1 1404 0
 964 001e 15F0450F 		tst	r5, #69
ARM GAS  C:\Users\Cihat\AppData\Local\Temp\ccTPXPIa.s 			page 46


 965 0022 F8D0     		beq	.L80
1403:Drivers/STM32F4xx_HAL_Driver/Src/stm32f4xx_ll_sdmmc.c ****          ((sta_reg & SDIO_FLAG_CMDACT) != 0U ));
 966              		.loc 1 1403 0 discriminator 1
 967 0024 15F4006F 		tst	r5, #2048
 968 0028 F5D1     		bne	.L80
1406:Drivers/STM32F4xx_HAL_Driver/Src/stm32f4xx_ll_sdmmc.c ****   {
 969              		.loc 1 1406 0
 970 002a 436B     		ldr	r3, [r0, #52]
 971 002c 13F0040F 		tst	r3, #4
 972 0030 07D1     		bne	.L89
1412:Drivers/STM32F4xx_HAL_Driver/Src/stm32f4xx_ll_sdmmc.c ****   {
 973              		.loc 1 1412 0
 974 0032 436B     		ldr	r3, [r0, #52]
 975 0034 13F0010F 		tst	r3, #1
 976 0038 07D0     		beq	.L82
1414:Drivers/STM32F4xx_HAL_Driver/Src/stm32f4xx_ll_sdmmc.c ****     
 977              		.loc 1 1414 0
 978 003a 0123     		movs	r3, #1
 979 003c 8363     		str	r3, [r0, #56]
1416:Drivers/STM32F4xx_HAL_Driver/Src/stm32f4xx_ll_sdmmc.c ****   }
 980              		.loc 1 1416 0
 981 003e 1846     		mov	r0, r3
 982              	.LVL123:
 983 0040 24E0     		b	.L78
 984              	.LVL124:
 985              	.L89:
1408:Drivers/STM32F4xx_HAL_Driver/Src/stm32f4xx_ll_sdmmc.c ****     
 986              		.loc 1 1408 0
 987 0042 0423     		movs	r3, #4
 988 0044 8363     		str	r3, [r0, #56]
1410:Drivers/STM32F4xx_HAL_Driver/Src/stm32f4xx_ll_sdmmc.c ****   }
 989              		.loc 1 1410 0
 990 0046 1846     		mov	r0, r3
 991              	.LVL125:
 992 0048 20E0     		b	.L78
 993              	.LVL126:
 994              	.L82:
 995 004a 1646     		mov	r6, r2
 996 004c 0D46     		mov	r5, r1
 997              	.LVL127:
 998 004e 0446     		mov	r4, r0
 999              	.LVL128:
1424:Drivers/STM32F4xx_HAL_Driver/Src/stm32f4xx_ll_sdmmc.c ****   {
 1000              		.loc 1 1424 0
 1001 0050 FFF7FEFF 		bl	SDIO_GetCommandResponse
 1002              	.LVL129:
 1003 0054 A842     		cmp	r0, r5
 1004 0056 01D0     		beq	.L90
1426:Drivers/STM32F4xx_HAL_Driver/Src/stm32f4xx_ll_sdmmc.c ****   }
 1005              		.loc 1 1426 0
 1006 0058 0120     		movs	r0, #1
 1007 005a 17E0     		b	.L78
 1008              	.L90:
1430:Drivers/STM32F4xx_HAL_Driver/Src/stm32f4xx_ll_sdmmc.c ****   
 1009              		.loc 1 1430 0
 1010 005c C523     		movs	r3, #197
 1011 005e A363     		str	r3, [r4, #56]
ARM GAS  C:\Users\Cihat\AppData\Local\Temp\ccTPXPIa.s 			page 47


1433:Drivers/STM32F4xx_HAL_Driver/Src/stm32f4xx_ll_sdmmc.c ****   
 1012              		.loc 1 1433 0
 1013 0060 0021     		movs	r1, #0
 1014 0062 2046     		mov	r0, r4
 1015 0064 FFF7FEFF 		bl	SDIO_GetResponse
 1016              	.LVL130:
1435:Drivers/STM32F4xx_HAL_Driver/Src/stm32f4xx_ll_sdmmc.c ****   {
 1017              		.loc 1 1435 0
 1018 0068 10F4604F 		tst	r0, #57344
 1019 006c 08D0     		beq	.L91
1441:Drivers/STM32F4xx_HAL_Driver/Src/stm32f4xx_ll_sdmmc.c ****   {
 1020              		.loc 1 1441 0
 1021 006e 10F4804F 		tst	r0, #16384
 1022 0072 0CD1     		bne	.L86
1445:Drivers/STM32F4xx_HAL_Driver/Src/stm32f4xx_ll_sdmmc.c ****   {
 1023              		.loc 1 1445 0
 1024 0074 10F4004F 		tst	r0, #32768
 1025 0078 0CD0     		beq	.L87
1447:Drivers/STM32F4xx_HAL_Driver/Src/stm32f4xx_ll_sdmmc.c ****   }
 1026              		.loc 1 1447 0
 1027 007a 4FF48050 		mov	r0, #4096
 1028              	.LVL131:
 1029 007e 05E0     		b	.L78
 1030              	.LVL132:
 1031              	.L91:
1437:Drivers/STM32F4xx_HAL_Driver/Src/stm32f4xx_ll_sdmmc.c ****     
 1032              		.loc 1 1437 0
 1033 0080 000C     		lsrs	r0, r0, #16
 1034              	.LVL133:
 1035 0082 3080     		strh	r0, [r6]	@ movhi
1439:Drivers/STM32F4xx_HAL_Driver/Src/stm32f4xx_ll_sdmmc.c ****   }
 1036              		.loc 1 1439 0
 1037 0084 0020     		movs	r0, #0
 1038 0086 01E0     		b	.L78
 1039              	.LVL134:
 1040              	.L84:
1400:Drivers/STM32F4xx_HAL_Driver/Src/stm32f4xx_ll_sdmmc.c ****     }
 1041              		.loc 1 1400 0
 1042 0088 4FF00040 		mov	r0, #-2147483648
 1043              	.LVL135:
 1044              	.L78:
1453:Drivers/STM32F4xx_HAL_Driver/Src/stm32f4xx_ll_sdmmc.c **** 
 1045              		.loc 1 1453 0
 1046 008c 70BD     		pop	{r4, r5, r6, pc}
 1047              	.LVL136:
 1048              	.L86:
1443:Drivers/STM32F4xx_HAL_Driver/Src/stm32f4xx_ll_sdmmc.c ****   }
 1049              		.loc 1 1443 0
 1050 008e 4FF40050 		mov	r0, #8192
 1051              	.LVL137:
 1052 0092 FBE7     		b	.L78
 1053              	.LVL138:
 1054              	.L87:
1451:Drivers/STM32F4xx_HAL_Driver/Src/stm32f4xx_ll_sdmmc.c ****   }
 1055              		.loc 1 1451 0
 1056 0094 4FF48030 		mov	r0, #65536
 1057              	.LVL139:
ARM GAS  C:\Users\Cihat\AppData\Local\Temp\ccTPXPIa.s 			page 48


 1058 0098 F8E7     		b	.L78
 1059              	.L93:
 1060 009a 00BF     		.align	2
 1061              	.L92:
 1062 009c 00000000 		.word	SystemCoreClock
 1063 00a0 D34D6210 		.word	274877907
 1064              		.cfi_endproc
 1065              	.LFE172:
 1067              		.section	.text.SDIO_ConfigData,"ax",%progbits
 1068              		.align	1
 1069              		.global	SDIO_ConfigData
 1070              		.syntax unified
 1071              		.thumb
 1072              		.thumb_func
 1073              		.fpu fpv4-sp-d16
 1075              	SDIO_ConfigData:
 1076              	.LFB139:
 425:Drivers/STM32F4xx_HAL_Driver/Src/stm32f4xx_ll_sdmmc.c ****   uint32_t tmpreg = 0;
 1077              		.loc 1 425 0
 1078              		.cfi_startproc
 1079              		@ args = 0, pretend = 0, frame = 0
 1080              		@ frame_needed = 0, uses_anonymous_args = 0
 1081              		@ link register save eliminated.
 1082              	.LVL140:
 436:Drivers/STM32F4xx_HAL_Driver/Src/stm32f4xx_ll_sdmmc.c **** 
 1083              		.loc 1 436 0
 1084 0000 0B68     		ldr	r3, [r1]
 1085 0002 4362     		str	r3, [r0, #36]
 439:Drivers/STM32F4xx_HAL_Driver/Src/stm32f4xx_ll_sdmmc.c **** 
 1086              		.loc 1 439 0
 1087 0004 4B68     		ldr	r3, [r1, #4]
 1088 0006 8362     		str	r3, [r0, #40]
 442:Drivers/STM32F4xx_HAL_Driver/Src/stm32f4xx_ll_sdmmc.c ****                        Data->TransferDir   |\
 1089              		.loc 1 442 0
 1090 0008 8B68     		ldr	r3, [r1, #8]
 443:Drivers/STM32F4xx_HAL_Driver/Src/stm32f4xx_ll_sdmmc.c ****                        Data->TransferMode  |\
 1091              		.loc 1 443 0
 1092 000a CA68     		ldr	r2, [r1, #12]
 442:Drivers/STM32F4xx_HAL_Driver/Src/stm32f4xx_ll_sdmmc.c ****                        Data->TransferDir   |\
 1093              		.loc 1 442 0
 1094 000c 1343     		orrs	r3, r3, r2
 444:Drivers/STM32F4xx_HAL_Driver/Src/stm32f4xx_ll_sdmmc.c ****                        Data->DPSM);
 1095              		.loc 1 444 0
 1096 000e 0A69     		ldr	r2, [r1, #16]
 443:Drivers/STM32F4xx_HAL_Driver/Src/stm32f4xx_ll_sdmmc.c ****                        Data->TransferMode  |\
 1097              		.loc 1 443 0
 1098 0010 1343     		orrs	r3, r3, r2
 445:Drivers/STM32F4xx_HAL_Driver/Src/stm32f4xx_ll_sdmmc.c ****   
 1099              		.loc 1 445 0
 1100 0012 4A69     		ldr	r2, [r1, #20]
 444:Drivers/STM32F4xx_HAL_Driver/Src/stm32f4xx_ll_sdmmc.c ****                        Data->DPSM);
 1101              		.loc 1 444 0
 1102 0014 1343     		orrs	r3, r3, r2
 1103              	.LVL141:
 448:Drivers/STM32F4xx_HAL_Driver/Src/stm32f4xx_ll_sdmmc.c **** 
 1104              		.loc 1 448 0
 1105 0016 C26A     		ldr	r2, [r0, #44]
ARM GAS  C:\Users\Cihat\AppData\Local\Temp\ccTPXPIa.s 			page 49


 1106 0018 22F0F702 		bic	r2, r2, #247
 1107 001c 1343     		orrs	r3, r3, r2
 1108              	.LVL142:
 1109 001e C362     		str	r3, [r0, #44]
 1110              	.LVL143:
 452:Drivers/STM32F4xx_HAL_Driver/Src/stm32f4xx_ll_sdmmc.c **** 
 1111              		.loc 1 452 0
 1112 0020 0020     		movs	r0, #0
 1113              	.LVL144:
 1114 0022 7047     		bx	lr
 1115              		.cfi_endproc
 1116              	.LFE139:
 1118              		.section	.text.SDIO_GetDataCounter,"ax",%progbits
 1119              		.align	1
 1120              		.global	SDIO_GetDataCounter
 1121              		.syntax unified
 1122              		.thumb
 1123              		.thumb_func
 1124              		.fpu fpv4-sp-d16
 1126              	SDIO_GetDataCounter:
 1127              	.LFB140:
 460:Drivers/STM32F4xx_HAL_Driver/Src/stm32f4xx_ll_sdmmc.c ****   return (SDIOx->DCOUNT);
 1128              		.loc 1 460 0
 1129              		.cfi_startproc
 1130              		@ args = 0, pretend = 0, frame = 0
 1131              		@ frame_needed = 0, uses_anonymous_args = 0
 1132              		@ link register save eliminated.
 1133              	.LVL145:
 461:Drivers/STM32F4xx_HAL_Driver/Src/stm32f4xx_ll_sdmmc.c **** }
 1134              		.loc 1 461 0
 1135 0000 006B     		ldr	r0, [r0, #48]
 1136              	.LVL146:
 462:Drivers/STM32F4xx_HAL_Driver/Src/stm32f4xx_ll_sdmmc.c **** 
 1137              		.loc 1 462 0
 1138 0002 7047     		bx	lr
 1139              		.cfi_endproc
 1140              	.LFE140:
 1142              		.section	.text.SDIO_GetFIFOCount,"ax",%progbits
 1143              		.align	1
 1144              		.global	SDIO_GetFIFOCount
 1145              		.syntax unified
 1146              		.thumb
 1147              		.thumb_func
 1148              		.fpu fpv4-sp-d16
 1150              	SDIO_GetFIFOCount:
 1151              	.LFB141:
 470:Drivers/STM32F4xx_HAL_Driver/Src/stm32f4xx_ll_sdmmc.c ****   return (SDIOx->FIFO);
 1152              		.loc 1 470 0
 1153              		.cfi_startproc
 1154              		@ args = 0, pretend = 0, frame = 0
 1155              		@ frame_needed = 0, uses_anonymous_args = 0
 1156              		@ link register save eliminated.
 1157              	.LVL147:
 471:Drivers/STM32F4xx_HAL_Driver/Src/stm32f4xx_ll_sdmmc.c **** }
 1158              		.loc 1 471 0
 1159 0000 D0F88000 		ldr	r0, [r0, #128]
 1160              	.LVL148:
ARM GAS  C:\Users\Cihat\AppData\Local\Temp\ccTPXPIa.s 			page 50


 472:Drivers/STM32F4xx_HAL_Driver/Src/stm32f4xx_ll_sdmmc.c **** 
 1161              		.loc 1 472 0
 1162 0004 7047     		bx	lr
 1163              		.cfi_endproc
 1164              	.LFE141:
 1166              		.section	.text.SDIO_SetSDMMCReadWaitMode,"ax",%progbits
 1167              		.align	1
 1168              		.global	SDIO_SetSDMMCReadWaitMode
 1169              		.syntax unified
 1170              		.thumb
 1171              		.thumb_func
 1172              		.fpu fpv4-sp-d16
 1174              	SDIO_SetSDMMCReadWaitMode:
 1175              	.LFB142:
 484:Drivers/STM32F4xx_HAL_Driver/Src/stm32f4xx_ll_sdmmc.c ****   /* Check the parameters */
 1176              		.loc 1 484 0
 1177              		.cfi_startproc
 1178              		@ args = 0, pretend = 0, frame = 0
 1179              		@ frame_needed = 0, uses_anonymous_args = 0
 1180              		@ link register save eliminated.
 1181              	.LVL149:
 489:Drivers/STM32F4xx_HAL_Driver/Src/stm32f4xx_ll_sdmmc.c ****   
 1182              		.loc 1 489 0
 1183 0000 C36A     		ldr	r3, [r0, #44]
 1184 0002 23F48063 		bic	r3, r3, #1024
 1185 0006 1943     		orrs	r1, r1, r3
 1186              	.LVL150:
 1187 0008 C162     		str	r1, [r0, #44]
 492:Drivers/STM32F4xx_HAL_Driver/Src/stm32f4xx_ll_sdmmc.c **** 
 1188              		.loc 1 492 0
 1189 000a 0020     		movs	r0, #0
 1190              	.LVL151:
 1191 000c 7047     		bx	lr
 1192              		.cfi_endproc
 1193              	.LFE142:
 1195              		.section	.text.SDMMC_CmdBlockLength,"ax",%progbits
 1196              		.align	1
 1197              		.global	SDMMC_CmdBlockLength
 1198              		.syntax unified
 1199              		.thumb
 1200              		.thumb_func
 1201              		.fpu fpv4-sp-d16
 1203              	SDMMC_CmdBlockLength:
 1204              	.LFB143:
 519:Drivers/STM32F4xx_HAL_Driver/Src/stm32f4xx_ll_sdmmc.c ****   SDIO_CmdInitTypeDef  sdmmc_cmdinit;
 1205              		.loc 1 519 0
 1206              		.cfi_startproc
 1207              		@ args = 0, pretend = 0, frame = 24
 1208              		@ frame_needed = 0, uses_anonymous_args = 0
 1209              	.LVL152:
 1210 0000 30B5     		push	{r4, r5, lr}
 1211              	.LCFI7:
 1212              		.cfi_def_cfa_offset 12
 1213              		.cfi_offset 4, -12
 1214              		.cfi_offset 5, -8
 1215              		.cfi_offset 14, -4
 1216 0002 87B0     		sub	sp, sp, #28
ARM GAS  C:\Users\Cihat\AppData\Local\Temp\ccTPXPIa.s 			page 51


 1217              	.LCFI8:
 1218              		.cfi_def_cfa_offset 40
 1219 0004 0546     		mov	r5, r0
 524:Drivers/STM32F4xx_HAL_Driver/Src/stm32f4xx_ll_sdmmc.c ****   sdmmc_cmdinit.CmdIndex         = SDMMC_CMD_SET_BLOCKLEN;
 1220              		.loc 1 524 0
 1221 0006 0191     		str	r1, [sp, #4]
 525:Drivers/STM32F4xx_HAL_Driver/Src/stm32f4xx_ll_sdmmc.c ****   sdmmc_cmdinit.Response         = SDIO_RESPONSE_SHORT;
 1222              		.loc 1 525 0
 1223 0008 1024     		movs	r4, #16
 1224 000a 0294     		str	r4, [sp, #8]
 526:Drivers/STM32F4xx_HAL_Driver/Src/stm32f4xx_ll_sdmmc.c ****   sdmmc_cmdinit.WaitForInterrupt = SDIO_WAIT_NO;
 1225              		.loc 1 526 0
 1226 000c 4023     		movs	r3, #64
 1227 000e 0393     		str	r3, [sp, #12]
 527:Drivers/STM32F4xx_HAL_Driver/Src/stm32f4xx_ll_sdmmc.c ****   sdmmc_cmdinit.CPSM             = SDIO_CPSM_ENABLE;
 1228              		.loc 1 527 0
 1229 0010 0023     		movs	r3, #0
 1230 0012 0493     		str	r3, [sp, #16]
 528:Drivers/STM32F4xx_HAL_Driver/Src/stm32f4xx_ll_sdmmc.c ****   (void)SDIO_SendCommand(SDIOx, &sdmmc_cmdinit);
 1231              		.loc 1 528 0
 1232 0014 4FF48063 		mov	r3, #1024
 1233 0018 0593     		str	r3, [sp, #20]
 529:Drivers/STM32F4xx_HAL_Driver/Src/stm32f4xx_ll_sdmmc.c ****   
 1234              		.loc 1 529 0
 1235 001a 01A9     		add	r1, sp, #4
 1236              	.LVL153:
 1237 001c FFF7FEFF 		bl	SDIO_SendCommand
 1238              	.LVL154:
 532:Drivers/STM32F4xx_HAL_Driver/Src/stm32f4xx_ll_sdmmc.c **** 
 1239              		.loc 1 532 0
 1240 0020 41F28832 		movw	r2, #5000
 1241 0024 2146     		mov	r1, r4
 1242 0026 2846     		mov	r0, r5
 1243 0028 FFF7FEFF 		bl	SDMMC_GetCmdResp1
 1244              	.LVL155:
 535:Drivers/STM32F4xx_HAL_Driver/Src/stm32f4xx_ll_sdmmc.c **** 
 1245              		.loc 1 535 0
 1246 002c 07B0     		add	sp, sp, #28
 1247              	.LCFI9:
 1248              		.cfi_def_cfa_offset 12
 1249              		@ sp needed
 1250 002e 30BD     		pop	{r4, r5, pc}
 1251              		.cfi_endproc
 1252              	.LFE143:
 1254              		.section	.text.SDMMC_CmdReadSingleBlock,"ax",%progbits
 1255              		.align	1
 1256              		.global	SDMMC_CmdReadSingleBlock
 1257              		.syntax unified
 1258              		.thumb
 1259              		.thumb_func
 1260              		.fpu fpv4-sp-d16
 1262              	SDMMC_CmdReadSingleBlock:
 1263              	.LFB144:
 543:Drivers/STM32F4xx_HAL_Driver/Src/stm32f4xx_ll_sdmmc.c ****   SDIO_CmdInitTypeDef  sdmmc_cmdinit;
 1264              		.loc 1 543 0
 1265              		.cfi_startproc
 1266              		@ args = 0, pretend = 0, frame = 24
ARM GAS  C:\Users\Cihat\AppData\Local\Temp\ccTPXPIa.s 			page 52


 1267              		@ frame_needed = 0, uses_anonymous_args = 0
 1268              	.LVL156:
 1269 0000 30B5     		push	{r4, r5, lr}
 1270              	.LCFI10:
 1271              		.cfi_def_cfa_offset 12
 1272              		.cfi_offset 4, -12
 1273              		.cfi_offset 5, -8
 1274              		.cfi_offset 14, -4
 1275 0002 87B0     		sub	sp, sp, #28
 1276              	.LCFI11:
 1277              		.cfi_def_cfa_offset 40
 1278 0004 0546     		mov	r5, r0
 548:Drivers/STM32F4xx_HAL_Driver/Src/stm32f4xx_ll_sdmmc.c ****   sdmmc_cmdinit.CmdIndex         = SDMMC_CMD_READ_SINGLE_BLOCK;
 1279              		.loc 1 548 0
 1280 0006 0191     		str	r1, [sp, #4]
 549:Drivers/STM32F4xx_HAL_Driver/Src/stm32f4xx_ll_sdmmc.c ****   sdmmc_cmdinit.Response         = SDIO_RESPONSE_SHORT;
 1281              		.loc 1 549 0
 1282 0008 1124     		movs	r4, #17
 1283 000a 0294     		str	r4, [sp, #8]
 550:Drivers/STM32F4xx_HAL_Driver/Src/stm32f4xx_ll_sdmmc.c ****   sdmmc_cmdinit.WaitForInterrupt = SDIO_WAIT_NO;
 1284              		.loc 1 550 0
 1285 000c 4023     		movs	r3, #64
 1286 000e 0393     		str	r3, [sp, #12]
 551:Drivers/STM32F4xx_HAL_Driver/Src/stm32f4xx_ll_sdmmc.c ****   sdmmc_cmdinit.CPSM             = SDIO_CPSM_ENABLE;
 1287              		.loc 1 551 0
 1288 0010 0023     		movs	r3, #0
 1289 0012 0493     		str	r3, [sp, #16]
 552:Drivers/STM32F4xx_HAL_Driver/Src/stm32f4xx_ll_sdmmc.c ****   (void)SDIO_SendCommand(SDIOx, &sdmmc_cmdinit);
 1290              		.loc 1 552 0
 1291 0014 4FF48063 		mov	r3, #1024
 1292 0018 0593     		str	r3, [sp, #20]
 553:Drivers/STM32F4xx_HAL_Driver/Src/stm32f4xx_ll_sdmmc.c ****   
 1293              		.loc 1 553 0
 1294 001a 01A9     		add	r1, sp, #4
 1295              	.LVL157:
 1296 001c FFF7FEFF 		bl	SDIO_SendCommand
 1297              	.LVL158:
 556:Drivers/STM32F4xx_HAL_Driver/Src/stm32f4xx_ll_sdmmc.c **** 
 1298              		.loc 1 556 0
 1299 0020 41F28832 		movw	r2, #5000
 1300 0024 2146     		mov	r1, r4
 1301 0026 2846     		mov	r0, r5
 1302 0028 FFF7FEFF 		bl	SDMMC_GetCmdResp1
 1303              	.LVL159:
 559:Drivers/STM32F4xx_HAL_Driver/Src/stm32f4xx_ll_sdmmc.c **** 
 1304              		.loc 1 559 0
 1305 002c 07B0     		add	sp, sp, #28
 1306              	.LCFI12:
 1307              		.cfi_def_cfa_offset 12
 1308              		@ sp needed
 1309 002e 30BD     		pop	{r4, r5, pc}
 1310              		.cfi_endproc
 1311              	.LFE144:
 1313              		.section	.text.SDMMC_CmdReadMultiBlock,"ax",%progbits
 1314              		.align	1
 1315              		.global	SDMMC_CmdReadMultiBlock
 1316              		.syntax unified
ARM GAS  C:\Users\Cihat\AppData\Local\Temp\ccTPXPIa.s 			page 53


 1317              		.thumb
 1318              		.thumb_func
 1319              		.fpu fpv4-sp-d16
 1321              	SDMMC_CmdReadMultiBlock:
 1322              	.LFB145:
 567:Drivers/STM32F4xx_HAL_Driver/Src/stm32f4xx_ll_sdmmc.c ****   SDIO_CmdInitTypeDef  sdmmc_cmdinit;
 1323              		.loc 1 567 0
 1324              		.cfi_startproc
 1325              		@ args = 0, pretend = 0, frame = 24
 1326              		@ frame_needed = 0, uses_anonymous_args = 0
 1327              	.LVL160:
 1328 0000 30B5     		push	{r4, r5, lr}
 1329              	.LCFI13:
 1330              		.cfi_def_cfa_offset 12
 1331              		.cfi_offset 4, -12
 1332              		.cfi_offset 5, -8
 1333              		.cfi_offset 14, -4
 1334 0002 87B0     		sub	sp, sp, #28
 1335              	.LCFI14:
 1336              		.cfi_def_cfa_offset 40
 1337 0004 0546     		mov	r5, r0
 572:Drivers/STM32F4xx_HAL_Driver/Src/stm32f4xx_ll_sdmmc.c ****   sdmmc_cmdinit.CmdIndex         = SDMMC_CMD_READ_MULT_BLOCK;
 1338              		.loc 1 572 0
 1339 0006 0191     		str	r1, [sp, #4]
 573:Drivers/STM32F4xx_HAL_Driver/Src/stm32f4xx_ll_sdmmc.c ****   sdmmc_cmdinit.Response         = SDIO_RESPONSE_SHORT;
 1340              		.loc 1 573 0
 1341 0008 1224     		movs	r4, #18
 1342 000a 0294     		str	r4, [sp, #8]
 574:Drivers/STM32F4xx_HAL_Driver/Src/stm32f4xx_ll_sdmmc.c ****   sdmmc_cmdinit.WaitForInterrupt = SDIO_WAIT_NO;
 1343              		.loc 1 574 0
 1344 000c 4023     		movs	r3, #64
 1345 000e 0393     		str	r3, [sp, #12]
 575:Drivers/STM32F4xx_HAL_Driver/Src/stm32f4xx_ll_sdmmc.c ****   sdmmc_cmdinit.CPSM             = SDIO_CPSM_ENABLE;
 1346              		.loc 1 575 0
 1347 0010 0023     		movs	r3, #0
 1348 0012 0493     		str	r3, [sp, #16]
 576:Drivers/STM32F4xx_HAL_Driver/Src/stm32f4xx_ll_sdmmc.c ****   (void)SDIO_SendCommand(SDIOx, &sdmmc_cmdinit);
 1349              		.loc 1 576 0
 1350 0014 4FF48063 		mov	r3, #1024
 1351 0018 0593     		str	r3, [sp, #20]
 577:Drivers/STM32F4xx_HAL_Driver/Src/stm32f4xx_ll_sdmmc.c ****   
 1352              		.loc 1 577 0
 1353 001a 01A9     		add	r1, sp, #4
 1354              	.LVL161:
 1355 001c FFF7FEFF 		bl	SDIO_SendCommand
 1356              	.LVL162:
 580:Drivers/STM32F4xx_HAL_Driver/Src/stm32f4xx_ll_sdmmc.c **** 
 1357              		.loc 1 580 0
 1358 0020 41F28832 		movw	r2, #5000
 1359 0024 2146     		mov	r1, r4
 1360 0026 2846     		mov	r0, r5
 1361 0028 FFF7FEFF 		bl	SDMMC_GetCmdResp1
 1362              	.LVL163:
 583:Drivers/STM32F4xx_HAL_Driver/Src/stm32f4xx_ll_sdmmc.c **** 
 1363              		.loc 1 583 0
 1364 002c 07B0     		add	sp, sp, #28
 1365              	.LCFI15:
ARM GAS  C:\Users\Cihat\AppData\Local\Temp\ccTPXPIa.s 			page 54


 1366              		.cfi_def_cfa_offset 12
 1367              		@ sp needed
 1368 002e 30BD     		pop	{r4, r5, pc}
 1369              		.cfi_endproc
 1370              	.LFE145:
 1372              		.section	.text.SDMMC_CmdWriteSingleBlock,"ax",%progbits
 1373              		.align	1
 1374              		.global	SDMMC_CmdWriteSingleBlock
 1375              		.syntax unified
 1376              		.thumb
 1377              		.thumb_func
 1378              		.fpu fpv4-sp-d16
 1380              	SDMMC_CmdWriteSingleBlock:
 1381              	.LFB146:
 591:Drivers/STM32F4xx_HAL_Driver/Src/stm32f4xx_ll_sdmmc.c ****   SDIO_CmdInitTypeDef  sdmmc_cmdinit;
 1382              		.loc 1 591 0
 1383              		.cfi_startproc
 1384              		@ args = 0, pretend = 0, frame = 24
 1385              		@ frame_needed = 0, uses_anonymous_args = 0
 1386              	.LVL164:
 1387 0000 30B5     		push	{r4, r5, lr}
 1388              	.LCFI16:
 1389              		.cfi_def_cfa_offset 12
 1390              		.cfi_offset 4, -12
 1391              		.cfi_offset 5, -8
 1392              		.cfi_offset 14, -4
 1393 0002 87B0     		sub	sp, sp, #28
 1394              	.LCFI17:
 1395              		.cfi_def_cfa_offset 40
 1396 0004 0546     		mov	r5, r0
 596:Drivers/STM32F4xx_HAL_Driver/Src/stm32f4xx_ll_sdmmc.c ****   sdmmc_cmdinit.CmdIndex         = SDMMC_CMD_WRITE_SINGLE_BLOCK;
 1397              		.loc 1 596 0
 1398 0006 0191     		str	r1, [sp, #4]
 597:Drivers/STM32F4xx_HAL_Driver/Src/stm32f4xx_ll_sdmmc.c ****   sdmmc_cmdinit.Response         = SDIO_RESPONSE_SHORT;
 1399              		.loc 1 597 0
 1400 0008 1824     		movs	r4, #24
 1401 000a 0294     		str	r4, [sp, #8]
 598:Drivers/STM32F4xx_HAL_Driver/Src/stm32f4xx_ll_sdmmc.c ****   sdmmc_cmdinit.WaitForInterrupt = SDIO_WAIT_NO;
 1402              		.loc 1 598 0
 1403 000c 4023     		movs	r3, #64
 1404 000e 0393     		str	r3, [sp, #12]
 599:Drivers/STM32F4xx_HAL_Driver/Src/stm32f4xx_ll_sdmmc.c ****   sdmmc_cmdinit.CPSM             = SDIO_CPSM_ENABLE;
 1405              		.loc 1 599 0
 1406 0010 0023     		movs	r3, #0
 1407 0012 0493     		str	r3, [sp, #16]
 600:Drivers/STM32F4xx_HAL_Driver/Src/stm32f4xx_ll_sdmmc.c ****   (void)SDIO_SendCommand(SDIOx, &sdmmc_cmdinit);
 1408              		.loc 1 600 0
 1409 0014 4FF48063 		mov	r3, #1024
 1410 0018 0593     		str	r3, [sp, #20]
 601:Drivers/STM32F4xx_HAL_Driver/Src/stm32f4xx_ll_sdmmc.c ****   
 1411              		.loc 1 601 0
 1412 001a 01A9     		add	r1, sp, #4
 1413              	.LVL165:
 1414 001c FFF7FEFF 		bl	SDIO_SendCommand
 1415              	.LVL166:
 604:Drivers/STM32F4xx_HAL_Driver/Src/stm32f4xx_ll_sdmmc.c **** 
 1416              		.loc 1 604 0
ARM GAS  C:\Users\Cihat\AppData\Local\Temp\ccTPXPIa.s 			page 55


 1417 0020 41F28832 		movw	r2, #5000
 1418 0024 2146     		mov	r1, r4
 1419 0026 2846     		mov	r0, r5
 1420 0028 FFF7FEFF 		bl	SDMMC_GetCmdResp1
 1421              	.LVL167:
 607:Drivers/STM32F4xx_HAL_Driver/Src/stm32f4xx_ll_sdmmc.c **** 
 1422              		.loc 1 607 0
 1423 002c 07B0     		add	sp, sp, #28
 1424              	.LCFI18:
 1425              		.cfi_def_cfa_offset 12
 1426              		@ sp needed
 1427 002e 30BD     		pop	{r4, r5, pc}
 1428              		.cfi_endproc
 1429              	.LFE146:
 1431              		.section	.text.SDMMC_CmdWriteMultiBlock,"ax",%progbits
 1432              		.align	1
 1433              		.global	SDMMC_CmdWriteMultiBlock
 1434              		.syntax unified
 1435              		.thumb
 1436              		.thumb_func
 1437              		.fpu fpv4-sp-d16
 1439              	SDMMC_CmdWriteMultiBlock:
 1440              	.LFB147:
 615:Drivers/STM32F4xx_HAL_Driver/Src/stm32f4xx_ll_sdmmc.c ****   SDIO_CmdInitTypeDef  sdmmc_cmdinit;
 1441              		.loc 1 615 0
 1442              		.cfi_startproc
 1443              		@ args = 0, pretend = 0, frame = 24
 1444              		@ frame_needed = 0, uses_anonymous_args = 0
 1445              	.LVL168:
 1446 0000 30B5     		push	{r4, r5, lr}
 1447              	.LCFI19:
 1448              		.cfi_def_cfa_offset 12
 1449              		.cfi_offset 4, -12
 1450              		.cfi_offset 5, -8
 1451              		.cfi_offset 14, -4
 1452 0002 87B0     		sub	sp, sp, #28
 1453              	.LCFI20:
 1454              		.cfi_def_cfa_offset 40
 1455 0004 0546     		mov	r5, r0
 620:Drivers/STM32F4xx_HAL_Driver/Src/stm32f4xx_ll_sdmmc.c ****   sdmmc_cmdinit.CmdIndex         = SDMMC_CMD_WRITE_MULT_BLOCK;
 1456              		.loc 1 620 0
 1457 0006 0191     		str	r1, [sp, #4]
 621:Drivers/STM32F4xx_HAL_Driver/Src/stm32f4xx_ll_sdmmc.c ****   sdmmc_cmdinit.Response         = SDIO_RESPONSE_SHORT;
 1458              		.loc 1 621 0
 1459 0008 1924     		movs	r4, #25
 1460 000a 0294     		str	r4, [sp, #8]
 622:Drivers/STM32F4xx_HAL_Driver/Src/stm32f4xx_ll_sdmmc.c ****   sdmmc_cmdinit.WaitForInterrupt = SDIO_WAIT_NO;
 1461              		.loc 1 622 0
 1462 000c 4023     		movs	r3, #64
 1463 000e 0393     		str	r3, [sp, #12]
 623:Drivers/STM32F4xx_HAL_Driver/Src/stm32f4xx_ll_sdmmc.c ****   sdmmc_cmdinit.CPSM             = SDIO_CPSM_ENABLE;
 1464              		.loc 1 623 0
 1465 0010 0023     		movs	r3, #0
 1466 0012 0493     		str	r3, [sp, #16]
 624:Drivers/STM32F4xx_HAL_Driver/Src/stm32f4xx_ll_sdmmc.c ****   (void)SDIO_SendCommand(SDIOx, &sdmmc_cmdinit);
 1467              		.loc 1 624 0
 1468 0014 4FF48063 		mov	r3, #1024
ARM GAS  C:\Users\Cihat\AppData\Local\Temp\ccTPXPIa.s 			page 56


 1469 0018 0593     		str	r3, [sp, #20]
 625:Drivers/STM32F4xx_HAL_Driver/Src/stm32f4xx_ll_sdmmc.c ****   
 1470              		.loc 1 625 0
 1471 001a 01A9     		add	r1, sp, #4
 1472              	.LVL169:
 1473 001c FFF7FEFF 		bl	SDIO_SendCommand
 1474              	.LVL170:
 628:Drivers/STM32F4xx_HAL_Driver/Src/stm32f4xx_ll_sdmmc.c **** 
 1475              		.loc 1 628 0
 1476 0020 41F28832 		movw	r2, #5000
 1477 0024 2146     		mov	r1, r4
 1478 0026 2846     		mov	r0, r5
 1479 0028 FFF7FEFF 		bl	SDMMC_GetCmdResp1
 1480              	.LVL171:
 631:Drivers/STM32F4xx_HAL_Driver/Src/stm32f4xx_ll_sdmmc.c **** 
 1481              		.loc 1 631 0
 1482 002c 07B0     		add	sp, sp, #28
 1483              	.LCFI21:
 1484              		.cfi_def_cfa_offset 12
 1485              		@ sp needed
 1486 002e 30BD     		pop	{r4, r5, pc}
 1487              		.cfi_endproc
 1488              	.LFE147:
 1490              		.section	.text.SDMMC_CmdSDEraseStartAdd,"ax",%progbits
 1491              		.align	1
 1492              		.global	SDMMC_CmdSDEraseStartAdd
 1493              		.syntax unified
 1494              		.thumb
 1495              		.thumb_func
 1496              		.fpu fpv4-sp-d16
 1498              	SDMMC_CmdSDEraseStartAdd:
 1499              	.LFB148:
 639:Drivers/STM32F4xx_HAL_Driver/Src/stm32f4xx_ll_sdmmc.c ****   SDIO_CmdInitTypeDef  sdmmc_cmdinit;
 1500              		.loc 1 639 0
 1501              		.cfi_startproc
 1502              		@ args = 0, pretend = 0, frame = 24
 1503              		@ frame_needed = 0, uses_anonymous_args = 0
 1504              	.LVL172:
 1505 0000 30B5     		push	{r4, r5, lr}
 1506              	.LCFI22:
 1507              		.cfi_def_cfa_offset 12
 1508              		.cfi_offset 4, -12
 1509              		.cfi_offset 5, -8
 1510              		.cfi_offset 14, -4
 1511 0002 87B0     		sub	sp, sp, #28
 1512              	.LCFI23:
 1513              		.cfi_def_cfa_offset 40
 1514 0004 0546     		mov	r5, r0
 644:Drivers/STM32F4xx_HAL_Driver/Src/stm32f4xx_ll_sdmmc.c ****   sdmmc_cmdinit.CmdIndex         = SDMMC_CMD_SD_ERASE_GRP_START;
 1515              		.loc 1 644 0
 1516 0006 0191     		str	r1, [sp, #4]
 645:Drivers/STM32F4xx_HAL_Driver/Src/stm32f4xx_ll_sdmmc.c ****   sdmmc_cmdinit.Response         = SDIO_RESPONSE_SHORT;
 1517              		.loc 1 645 0
 1518 0008 2024     		movs	r4, #32
 1519 000a 0294     		str	r4, [sp, #8]
 646:Drivers/STM32F4xx_HAL_Driver/Src/stm32f4xx_ll_sdmmc.c ****   sdmmc_cmdinit.WaitForInterrupt = SDIO_WAIT_NO;
 1520              		.loc 1 646 0
ARM GAS  C:\Users\Cihat\AppData\Local\Temp\ccTPXPIa.s 			page 57


 1521 000c 4023     		movs	r3, #64
 1522 000e 0393     		str	r3, [sp, #12]
 647:Drivers/STM32F4xx_HAL_Driver/Src/stm32f4xx_ll_sdmmc.c ****   sdmmc_cmdinit.CPSM             = SDIO_CPSM_ENABLE;
 1523              		.loc 1 647 0
 1524 0010 0023     		movs	r3, #0
 1525 0012 0493     		str	r3, [sp, #16]
 648:Drivers/STM32F4xx_HAL_Driver/Src/stm32f4xx_ll_sdmmc.c ****   (void)SDIO_SendCommand(SDIOx, &sdmmc_cmdinit);
 1526              		.loc 1 648 0
 1527 0014 4FF48063 		mov	r3, #1024
 1528 0018 0593     		str	r3, [sp, #20]
 649:Drivers/STM32F4xx_HAL_Driver/Src/stm32f4xx_ll_sdmmc.c ****   
 1529              		.loc 1 649 0
 1530 001a 01A9     		add	r1, sp, #4
 1531              	.LVL173:
 1532 001c FFF7FEFF 		bl	SDIO_SendCommand
 1533              	.LVL174:
 652:Drivers/STM32F4xx_HAL_Driver/Src/stm32f4xx_ll_sdmmc.c **** 
 1534              		.loc 1 652 0
 1535 0020 41F28832 		movw	r2, #5000
 1536 0024 2146     		mov	r1, r4
 1537 0026 2846     		mov	r0, r5
 1538 0028 FFF7FEFF 		bl	SDMMC_GetCmdResp1
 1539              	.LVL175:
 655:Drivers/STM32F4xx_HAL_Driver/Src/stm32f4xx_ll_sdmmc.c **** 
 1540              		.loc 1 655 0
 1541 002c 07B0     		add	sp, sp, #28
 1542              	.LCFI24:
 1543              		.cfi_def_cfa_offset 12
 1544              		@ sp needed
 1545 002e 30BD     		pop	{r4, r5, pc}
 1546              		.cfi_endproc
 1547              	.LFE148:
 1549              		.section	.text.SDMMC_CmdSDEraseEndAdd,"ax",%progbits
 1550              		.align	1
 1551              		.global	SDMMC_CmdSDEraseEndAdd
 1552              		.syntax unified
 1553              		.thumb
 1554              		.thumb_func
 1555              		.fpu fpv4-sp-d16
 1557              	SDMMC_CmdSDEraseEndAdd:
 1558              	.LFB149:
 663:Drivers/STM32F4xx_HAL_Driver/Src/stm32f4xx_ll_sdmmc.c ****   SDIO_CmdInitTypeDef  sdmmc_cmdinit;
 1559              		.loc 1 663 0
 1560              		.cfi_startproc
 1561              		@ args = 0, pretend = 0, frame = 24
 1562              		@ frame_needed = 0, uses_anonymous_args = 0
 1563              	.LVL176:
 1564 0000 30B5     		push	{r4, r5, lr}
 1565              	.LCFI25:
 1566              		.cfi_def_cfa_offset 12
 1567              		.cfi_offset 4, -12
 1568              		.cfi_offset 5, -8
 1569              		.cfi_offset 14, -4
 1570 0002 87B0     		sub	sp, sp, #28
 1571              	.LCFI26:
 1572              		.cfi_def_cfa_offset 40
 1573 0004 0546     		mov	r5, r0
ARM GAS  C:\Users\Cihat\AppData\Local\Temp\ccTPXPIa.s 			page 58


 668:Drivers/STM32F4xx_HAL_Driver/Src/stm32f4xx_ll_sdmmc.c ****   sdmmc_cmdinit.CmdIndex         = SDMMC_CMD_SD_ERASE_GRP_END;
 1574              		.loc 1 668 0
 1575 0006 0191     		str	r1, [sp, #4]
 669:Drivers/STM32F4xx_HAL_Driver/Src/stm32f4xx_ll_sdmmc.c ****   sdmmc_cmdinit.Response         = SDIO_RESPONSE_SHORT;
 1576              		.loc 1 669 0
 1577 0008 2124     		movs	r4, #33
 1578 000a 0294     		str	r4, [sp, #8]
 670:Drivers/STM32F4xx_HAL_Driver/Src/stm32f4xx_ll_sdmmc.c ****   sdmmc_cmdinit.WaitForInterrupt = SDIO_WAIT_NO;
 1579              		.loc 1 670 0
 1580 000c 4023     		movs	r3, #64
 1581 000e 0393     		str	r3, [sp, #12]
 671:Drivers/STM32F4xx_HAL_Driver/Src/stm32f4xx_ll_sdmmc.c ****   sdmmc_cmdinit.CPSM             = SDIO_CPSM_ENABLE;
 1582              		.loc 1 671 0
 1583 0010 0023     		movs	r3, #0
 1584 0012 0493     		str	r3, [sp, #16]
 672:Drivers/STM32F4xx_HAL_Driver/Src/stm32f4xx_ll_sdmmc.c ****   (void)SDIO_SendCommand(SDIOx, &sdmmc_cmdinit);
 1585              		.loc 1 672 0
 1586 0014 4FF48063 		mov	r3, #1024
 1587 0018 0593     		str	r3, [sp, #20]
 673:Drivers/STM32F4xx_HAL_Driver/Src/stm32f4xx_ll_sdmmc.c ****   
 1588              		.loc 1 673 0
 1589 001a 01A9     		add	r1, sp, #4
 1590              	.LVL177:
 1591 001c FFF7FEFF 		bl	SDIO_SendCommand
 1592              	.LVL178:
 676:Drivers/STM32F4xx_HAL_Driver/Src/stm32f4xx_ll_sdmmc.c **** 
 1593              		.loc 1 676 0
 1594 0020 41F28832 		movw	r2, #5000
 1595 0024 2146     		mov	r1, r4
 1596 0026 2846     		mov	r0, r5
 1597 0028 FFF7FEFF 		bl	SDMMC_GetCmdResp1
 1598              	.LVL179:
 679:Drivers/STM32F4xx_HAL_Driver/Src/stm32f4xx_ll_sdmmc.c **** 
 1599              		.loc 1 679 0
 1600 002c 07B0     		add	sp, sp, #28
 1601              	.LCFI27:
 1602              		.cfi_def_cfa_offset 12
 1603              		@ sp needed
 1604 002e 30BD     		pop	{r4, r5, pc}
 1605              		.cfi_endproc
 1606              	.LFE149:
 1608              		.section	.text.SDMMC_CmdEraseStartAdd,"ax",%progbits
 1609              		.align	1
 1610              		.global	SDMMC_CmdEraseStartAdd
 1611              		.syntax unified
 1612              		.thumb
 1613              		.thumb_func
 1614              		.fpu fpv4-sp-d16
 1616              	SDMMC_CmdEraseStartAdd:
 1617              	.LFB150:
 687:Drivers/STM32F4xx_HAL_Driver/Src/stm32f4xx_ll_sdmmc.c ****   SDIO_CmdInitTypeDef  sdmmc_cmdinit;
 1618              		.loc 1 687 0
 1619              		.cfi_startproc
 1620              		@ args = 0, pretend = 0, frame = 24
 1621              		@ frame_needed = 0, uses_anonymous_args = 0
 1622              	.LVL180:
 1623 0000 30B5     		push	{r4, r5, lr}
ARM GAS  C:\Users\Cihat\AppData\Local\Temp\ccTPXPIa.s 			page 59


 1624              	.LCFI28:
 1625              		.cfi_def_cfa_offset 12
 1626              		.cfi_offset 4, -12
 1627              		.cfi_offset 5, -8
 1628              		.cfi_offset 14, -4
 1629 0002 87B0     		sub	sp, sp, #28
 1630              	.LCFI29:
 1631              		.cfi_def_cfa_offset 40
 1632 0004 0546     		mov	r5, r0
 692:Drivers/STM32F4xx_HAL_Driver/Src/stm32f4xx_ll_sdmmc.c ****   sdmmc_cmdinit.CmdIndex         = SDMMC_CMD_ERASE_GRP_START;
 1633              		.loc 1 692 0
 1634 0006 0191     		str	r1, [sp, #4]
 693:Drivers/STM32F4xx_HAL_Driver/Src/stm32f4xx_ll_sdmmc.c ****   sdmmc_cmdinit.Response         = SDIO_RESPONSE_SHORT;
 1635              		.loc 1 693 0
 1636 0008 2324     		movs	r4, #35
 1637 000a 0294     		str	r4, [sp, #8]
 694:Drivers/STM32F4xx_HAL_Driver/Src/stm32f4xx_ll_sdmmc.c ****   sdmmc_cmdinit.WaitForInterrupt = SDIO_WAIT_NO;
 1638              		.loc 1 694 0
 1639 000c 4023     		movs	r3, #64
 1640 000e 0393     		str	r3, [sp, #12]
 695:Drivers/STM32F4xx_HAL_Driver/Src/stm32f4xx_ll_sdmmc.c ****   sdmmc_cmdinit.CPSM             = SDIO_CPSM_ENABLE;
 1641              		.loc 1 695 0
 1642 0010 0023     		movs	r3, #0
 1643 0012 0493     		str	r3, [sp, #16]
 696:Drivers/STM32F4xx_HAL_Driver/Src/stm32f4xx_ll_sdmmc.c ****   (void)SDIO_SendCommand(SDIOx, &sdmmc_cmdinit);
 1644              		.loc 1 696 0
 1645 0014 4FF48063 		mov	r3, #1024
 1646 0018 0593     		str	r3, [sp, #20]
 697:Drivers/STM32F4xx_HAL_Driver/Src/stm32f4xx_ll_sdmmc.c ****   
 1647              		.loc 1 697 0
 1648 001a 01A9     		add	r1, sp, #4
 1649              	.LVL181:
 1650 001c FFF7FEFF 		bl	SDIO_SendCommand
 1651              	.LVL182:
 700:Drivers/STM32F4xx_HAL_Driver/Src/stm32f4xx_ll_sdmmc.c **** 
 1652              		.loc 1 700 0
 1653 0020 41F28832 		movw	r2, #5000
 1654 0024 2146     		mov	r1, r4
 1655 0026 2846     		mov	r0, r5
 1656 0028 FFF7FEFF 		bl	SDMMC_GetCmdResp1
 1657              	.LVL183:
 703:Drivers/STM32F4xx_HAL_Driver/Src/stm32f4xx_ll_sdmmc.c **** 
 1658              		.loc 1 703 0
 1659 002c 07B0     		add	sp, sp, #28
 1660              	.LCFI30:
 1661              		.cfi_def_cfa_offset 12
 1662              		@ sp needed
 1663 002e 30BD     		pop	{r4, r5, pc}
 1664              		.cfi_endproc
 1665              	.LFE150:
 1667              		.section	.text.SDMMC_CmdEraseEndAdd,"ax",%progbits
 1668              		.align	1
 1669              		.global	SDMMC_CmdEraseEndAdd
 1670              		.syntax unified
 1671              		.thumb
 1672              		.thumb_func
 1673              		.fpu fpv4-sp-d16
ARM GAS  C:\Users\Cihat\AppData\Local\Temp\ccTPXPIa.s 			page 60


 1675              	SDMMC_CmdEraseEndAdd:
 1676              	.LFB151:
 711:Drivers/STM32F4xx_HAL_Driver/Src/stm32f4xx_ll_sdmmc.c ****   SDIO_CmdInitTypeDef  sdmmc_cmdinit;
 1677              		.loc 1 711 0
 1678              		.cfi_startproc
 1679              		@ args = 0, pretend = 0, frame = 24
 1680              		@ frame_needed = 0, uses_anonymous_args = 0
 1681              	.LVL184:
 1682 0000 30B5     		push	{r4, r5, lr}
 1683              	.LCFI31:
 1684              		.cfi_def_cfa_offset 12
 1685              		.cfi_offset 4, -12
 1686              		.cfi_offset 5, -8
 1687              		.cfi_offset 14, -4
 1688 0002 87B0     		sub	sp, sp, #28
 1689              	.LCFI32:
 1690              		.cfi_def_cfa_offset 40
 1691 0004 0546     		mov	r5, r0
 716:Drivers/STM32F4xx_HAL_Driver/Src/stm32f4xx_ll_sdmmc.c ****   sdmmc_cmdinit.CmdIndex         = SDMMC_CMD_ERASE_GRP_END;
 1692              		.loc 1 716 0
 1693 0006 0191     		str	r1, [sp, #4]
 717:Drivers/STM32F4xx_HAL_Driver/Src/stm32f4xx_ll_sdmmc.c ****   sdmmc_cmdinit.Response         = SDIO_RESPONSE_SHORT;
 1694              		.loc 1 717 0
 1695 0008 2424     		movs	r4, #36
 1696 000a 0294     		str	r4, [sp, #8]
 718:Drivers/STM32F4xx_HAL_Driver/Src/stm32f4xx_ll_sdmmc.c ****   sdmmc_cmdinit.WaitForInterrupt = SDIO_WAIT_NO;
 1697              		.loc 1 718 0
 1698 000c 4023     		movs	r3, #64
 1699 000e 0393     		str	r3, [sp, #12]
 719:Drivers/STM32F4xx_HAL_Driver/Src/stm32f4xx_ll_sdmmc.c ****   sdmmc_cmdinit.CPSM             = SDIO_CPSM_ENABLE;
 1700              		.loc 1 719 0
 1701 0010 0023     		movs	r3, #0
 1702 0012 0493     		str	r3, [sp, #16]
 720:Drivers/STM32F4xx_HAL_Driver/Src/stm32f4xx_ll_sdmmc.c ****   (void)SDIO_SendCommand(SDIOx, &sdmmc_cmdinit);
 1703              		.loc 1 720 0
 1704 0014 4FF48063 		mov	r3, #1024
 1705 0018 0593     		str	r3, [sp, #20]
 721:Drivers/STM32F4xx_HAL_Driver/Src/stm32f4xx_ll_sdmmc.c ****   
 1706              		.loc 1 721 0
 1707 001a 01A9     		add	r1, sp, #4
 1708              	.LVL185:
 1709 001c FFF7FEFF 		bl	SDIO_SendCommand
 1710              	.LVL186:
 724:Drivers/STM32F4xx_HAL_Driver/Src/stm32f4xx_ll_sdmmc.c **** 
 1711              		.loc 1 724 0
 1712 0020 41F28832 		movw	r2, #5000
 1713 0024 2146     		mov	r1, r4
 1714 0026 2846     		mov	r0, r5
 1715 0028 FFF7FEFF 		bl	SDMMC_GetCmdResp1
 1716              	.LVL187:
 727:Drivers/STM32F4xx_HAL_Driver/Src/stm32f4xx_ll_sdmmc.c **** 
 1717              		.loc 1 727 0
 1718 002c 07B0     		add	sp, sp, #28
 1719              	.LCFI33:
 1720              		.cfi_def_cfa_offset 12
 1721              		@ sp needed
 1722 002e 30BD     		pop	{r4, r5, pc}
ARM GAS  C:\Users\Cihat\AppData\Local\Temp\ccTPXPIa.s 			page 61


 1723              		.cfi_endproc
 1724              	.LFE151:
 1726              		.section	.text.SDMMC_CmdErase,"ax",%progbits
 1727              		.align	1
 1728              		.global	SDMMC_CmdErase
 1729              		.syntax unified
 1730              		.thumb
 1731              		.thumb_func
 1732              		.fpu fpv4-sp-d16
 1734              	SDMMC_CmdErase:
 1735              	.LFB152:
 735:Drivers/STM32F4xx_HAL_Driver/Src/stm32f4xx_ll_sdmmc.c ****   SDIO_CmdInitTypeDef  sdmmc_cmdinit;
 1736              		.loc 1 735 0
 1737              		.cfi_startproc
 1738              		@ args = 0, pretend = 0, frame = 24
 1739              		@ frame_needed = 0, uses_anonymous_args = 0
 1740              	.LVL188:
 1741 0000 30B5     		push	{r4, r5, lr}
 1742              	.LCFI34:
 1743              		.cfi_def_cfa_offset 12
 1744              		.cfi_offset 4, -12
 1745              		.cfi_offset 5, -8
 1746              		.cfi_offset 14, -4
 1747 0002 87B0     		sub	sp, sp, #28
 1748              	.LCFI35:
 1749              		.cfi_def_cfa_offset 40
 1750 0004 0546     		mov	r5, r0
 740:Drivers/STM32F4xx_HAL_Driver/Src/stm32f4xx_ll_sdmmc.c ****   sdmmc_cmdinit.CmdIndex         = SDMMC_CMD_ERASE;
 1751              		.loc 1 740 0
 1752 0006 0023     		movs	r3, #0
 1753 0008 0193     		str	r3, [sp, #4]
 741:Drivers/STM32F4xx_HAL_Driver/Src/stm32f4xx_ll_sdmmc.c ****   sdmmc_cmdinit.Response         = SDIO_RESPONSE_SHORT;
 1754              		.loc 1 741 0
 1755 000a 2624     		movs	r4, #38
 1756 000c 0294     		str	r4, [sp, #8]
 742:Drivers/STM32F4xx_HAL_Driver/Src/stm32f4xx_ll_sdmmc.c ****   sdmmc_cmdinit.WaitForInterrupt = SDIO_WAIT_NO;
 1757              		.loc 1 742 0
 1758 000e 4022     		movs	r2, #64
 1759 0010 0392     		str	r2, [sp, #12]
 743:Drivers/STM32F4xx_HAL_Driver/Src/stm32f4xx_ll_sdmmc.c ****   sdmmc_cmdinit.CPSM             = SDIO_CPSM_ENABLE;
 1760              		.loc 1 743 0
 1761 0012 0493     		str	r3, [sp, #16]
 744:Drivers/STM32F4xx_HAL_Driver/Src/stm32f4xx_ll_sdmmc.c ****   (void)SDIO_SendCommand(SDIOx, &sdmmc_cmdinit);
 1762              		.loc 1 744 0
 1763 0014 4FF48063 		mov	r3, #1024
 1764 0018 0593     		str	r3, [sp, #20]
 745:Drivers/STM32F4xx_HAL_Driver/Src/stm32f4xx_ll_sdmmc.c ****   
 1765              		.loc 1 745 0
 1766 001a 01A9     		add	r1, sp, #4
 1767 001c FFF7FEFF 		bl	SDIO_SendCommand
 1768              	.LVL189:
 748:Drivers/STM32F4xx_HAL_Driver/Src/stm32f4xx_ll_sdmmc.c **** 
 1769              		.loc 1 748 0
 1770 0020 4FF21862 		movw	r2, #63000
 1771 0024 2146     		mov	r1, r4
 1772 0026 2846     		mov	r0, r5
 1773 0028 FFF7FEFF 		bl	SDMMC_GetCmdResp1
ARM GAS  C:\Users\Cihat\AppData\Local\Temp\ccTPXPIa.s 			page 62


 1774              	.LVL190:
 751:Drivers/STM32F4xx_HAL_Driver/Src/stm32f4xx_ll_sdmmc.c **** 
 1775              		.loc 1 751 0
 1776 002c 07B0     		add	sp, sp, #28
 1777              	.LCFI36:
 1778              		.cfi_def_cfa_offset 12
 1779              		@ sp needed
 1780 002e 30BD     		pop	{r4, r5, pc}
 1781              		.cfi_endproc
 1782              	.LFE152:
 1784              		.section	.text.SDMMC_CmdStopTransfer,"ax",%progbits
 1785              		.align	1
 1786              		.global	SDMMC_CmdStopTransfer
 1787              		.syntax unified
 1788              		.thumb
 1789              		.thumb_func
 1790              		.fpu fpv4-sp-d16
 1792              	SDMMC_CmdStopTransfer:
 1793              	.LFB153:
 759:Drivers/STM32F4xx_HAL_Driver/Src/stm32f4xx_ll_sdmmc.c ****   SDIO_CmdInitTypeDef  sdmmc_cmdinit;
 1794              		.loc 1 759 0
 1795              		.cfi_startproc
 1796              		@ args = 0, pretend = 0, frame = 24
 1797              		@ frame_needed = 0, uses_anonymous_args = 0
 1798              	.LVL191:
 1799 0000 30B5     		push	{r4, r5, lr}
 1800              	.LCFI37:
 1801              		.cfi_def_cfa_offset 12
 1802              		.cfi_offset 4, -12
 1803              		.cfi_offset 5, -8
 1804              		.cfi_offset 14, -4
 1805 0002 87B0     		sub	sp, sp, #28
 1806              	.LCFI38:
 1807              		.cfi_def_cfa_offset 40
 1808 0004 0546     		mov	r5, r0
 764:Drivers/STM32F4xx_HAL_Driver/Src/stm32f4xx_ll_sdmmc.c ****   sdmmc_cmdinit.CmdIndex         = SDMMC_CMD_STOP_TRANSMISSION;
 1809              		.loc 1 764 0
 1810 0006 0023     		movs	r3, #0
 1811 0008 0193     		str	r3, [sp, #4]
 765:Drivers/STM32F4xx_HAL_Driver/Src/stm32f4xx_ll_sdmmc.c ****   sdmmc_cmdinit.Response         = SDIO_RESPONSE_SHORT;
 1812              		.loc 1 765 0
 1813 000a 0C24     		movs	r4, #12
 1814 000c 0294     		str	r4, [sp, #8]
 766:Drivers/STM32F4xx_HAL_Driver/Src/stm32f4xx_ll_sdmmc.c ****   sdmmc_cmdinit.WaitForInterrupt = SDIO_WAIT_NO;
 1815              		.loc 1 766 0
 1816 000e 4022     		movs	r2, #64
 1817 0010 0392     		str	r2, [sp, #12]
 767:Drivers/STM32F4xx_HAL_Driver/Src/stm32f4xx_ll_sdmmc.c ****   sdmmc_cmdinit.CPSM             = SDIO_CPSM_ENABLE;
 1818              		.loc 1 767 0
 1819 0012 0493     		str	r3, [sp, #16]
 768:Drivers/STM32F4xx_HAL_Driver/Src/stm32f4xx_ll_sdmmc.c ****   (void)SDIO_SendCommand(SDIOx, &sdmmc_cmdinit);
 1820              		.loc 1 768 0
 1821 0014 4FF48063 		mov	r3, #1024
 1822 0018 0593     		str	r3, [sp, #20]
 769:Drivers/STM32F4xx_HAL_Driver/Src/stm32f4xx_ll_sdmmc.c ****   
 1823              		.loc 1 769 0
 1824 001a 01A9     		add	r1, sp, #4
ARM GAS  C:\Users\Cihat\AppData\Local\Temp\ccTPXPIa.s 			page 63


 1825 001c FFF7FEFF 		bl	SDIO_SendCommand
 1826              	.LVL192:
 772:Drivers/STM32F4xx_HAL_Driver/Src/stm32f4xx_ll_sdmmc.c **** 
 1827              		.loc 1 772 0
 1828 0020 034A     		ldr	r2, .L120
 1829 0022 2146     		mov	r1, r4
 1830 0024 2846     		mov	r0, r5
 1831 0026 FFF7FEFF 		bl	SDMMC_GetCmdResp1
 1832              	.LVL193:
 775:Drivers/STM32F4xx_HAL_Driver/Src/stm32f4xx_ll_sdmmc.c **** 
 1833              		.loc 1 775 0
 1834 002a 07B0     		add	sp, sp, #28
 1835              	.LCFI39:
 1836              		.cfi_def_cfa_offset 12
 1837              		@ sp needed
 1838 002c 30BD     		pop	{r4, r5, pc}
 1839              	.LVL194:
 1840              	.L121:
 1841 002e 00BF     		.align	2
 1842              	.L120:
 1843 0030 00E1F505 		.word	100000000
 1844              		.cfi_endproc
 1845              	.LFE153:
 1847              		.section	.text.SDMMC_CmdSelDesel,"ax",%progbits
 1848              		.align	1
 1849              		.global	SDMMC_CmdSelDesel
 1850              		.syntax unified
 1851              		.thumb
 1852              		.thumb_func
 1853              		.fpu fpv4-sp-d16
 1855              	SDMMC_CmdSelDesel:
 1856              	.LFB154:
 784:Drivers/STM32F4xx_HAL_Driver/Src/stm32f4xx_ll_sdmmc.c ****   SDIO_CmdInitTypeDef  sdmmc_cmdinit;
 1857              		.loc 1 784 0
 1858              		.cfi_startproc
 1859              		@ args = 0, pretend = 0, frame = 24
 1860              		@ frame_needed = 0, uses_anonymous_args = 0
 1861              	.LVL195:
 1862 0000 30B5     		push	{r4, r5, lr}
 1863              	.LCFI40:
 1864              		.cfi_def_cfa_offset 12
 1865              		.cfi_offset 4, -12
 1866              		.cfi_offset 5, -8
 1867              		.cfi_offset 14, -4
 1868 0002 87B0     		sub	sp, sp, #28
 1869              	.LCFI41:
 1870              		.cfi_def_cfa_offset 40
 1871 0004 0546     		mov	r5, r0
 789:Drivers/STM32F4xx_HAL_Driver/Src/stm32f4xx_ll_sdmmc.c ****   sdmmc_cmdinit.CmdIndex         = SDMMC_CMD_SEL_DESEL_CARD;
 1872              		.loc 1 789 0
 1873 0006 0192     		str	r2, [sp, #4]
 790:Drivers/STM32F4xx_HAL_Driver/Src/stm32f4xx_ll_sdmmc.c ****   sdmmc_cmdinit.Response         = SDIO_RESPONSE_SHORT;
 1874              		.loc 1 790 0
 1875 0008 0724     		movs	r4, #7
 1876 000a 0294     		str	r4, [sp, #8]
 791:Drivers/STM32F4xx_HAL_Driver/Src/stm32f4xx_ll_sdmmc.c ****   sdmmc_cmdinit.WaitForInterrupt = SDIO_WAIT_NO;
 1877              		.loc 1 791 0
ARM GAS  C:\Users\Cihat\AppData\Local\Temp\ccTPXPIa.s 			page 64


 1878 000c 4023     		movs	r3, #64
 1879 000e 0393     		str	r3, [sp, #12]
 792:Drivers/STM32F4xx_HAL_Driver/Src/stm32f4xx_ll_sdmmc.c ****   sdmmc_cmdinit.CPSM             = SDIO_CPSM_ENABLE;
 1880              		.loc 1 792 0
 1881 0010 0023     		movs	r3, #0
 1882 0012 0493     		str	r3, [sp, #16]
 793:Drivers/STM32F4xx_HAL_Driver/Src/stm32f4xx_ll_sdmmc.c ****   (void)SDIO_SendCommand(SDIOx, &sdmmc_cmdinit);
 1883              		.loc 1 793 0
 1884 0014 4FF48063 		mov	r3, #1024
 1885 0018 0593     		str	r3, [sp, #20]
 794:Drivers/STM32F4xx_HAL_Driver/Src/stm32f4xx_ll_sdmmc.c ****   
 1886              		.loc 1 794 0
 1887 001a 01A9     		add	r1, sp, #4
 1888 001c FFF7FEFF 		bl	SDIO_SendCommand
 1889              	.LVL196:
 797:Drivers/STM32F4xx_HAL_Driver/Src/stm32f4xx_ll_sdmmc.c **** 
 1890              		.loc 1 797 0
 1891 0020 41F28832 		movw	r2, #5000
 1892 0024 2146     		mov	r1, r4
 1893 0026 2846     		mov	r0, r5
 1894 0028 FFF7FEFF 		bl	SDMMC_GetCmdResp1
 1895              	.LVL197:
 800:Drivers/STM32F4xx_HAL_Driver/Src/stm32f4xx_ll_sdmmc.c **** 
 1896              		.loc 1 800 0
 1897 002c 07B0     		add	sp, sp, #28
 1898              	.LCFI42:
 1899              		.cfi_def_cfa_offset 12
 1900              		@ sp needed
 1901 002e 30BD     		pop	{r4, r5, pc}
 1902              		.cfi_endproc
 1903              	.LFE154:
 1905              		.section	.text.SDMMC_CmdGoIdleState,"ax",%progbits
 1906              		.align	1
 1907              		.global	SDMMC_CmdGoIdleState
 1908              		.syntax unified
 1909              		.thumb
 1910              		.thumb_func
 1911              		.fpu fpv4-sp-d16
 1913              	SDMMC_CmdGoIdleState:
 1914              	.LFB155:
 808:Drivers/STM32F4xx_HAL_Driver/Src/stm32f4xx_ll_sdmmc.c ****   SDIO_CmdInitTypeDef  sdmmc_cmdinit;
 1915              		.loc 1 808 0
 1916              		.cfi_startproc
 1917              		@ args = 0, pretend = 0, frame = 24
 1918              		@ frame_needed = 0, uses_anonymous_args = 0
 1919              	.LVL198:
 1920 0000 10B5     		push	{r4, lr}
 1921              	.LCFI43:
 1922              		.cfi_def_cfa_offset 8
 1923              		.cfi_offset 4, -8
 1924              		.cfi_offset 14, -4
 1925 0002 86B0     		sub	sp, sp, #24
 1926              	.LCFI44:
 1927              		.cfi_def_cfa_offset 32
 1928 0004 0446     		mov	r4, r0
 812:Drivers/STM32F4xx_HAL_Driver/Src/stm32f4xx_ll_sdmmc.c ****   sdmmc_cmdinit.CmdIndex         = SDMMC_CMD_GO_IDLE_STATE;
 1929              		.loc 1 812 0
ARM GAS  C:\Users\Cihat\AppData\Local\Temp\ccTPXPIa.s 			page 65


 1930 0006 0023     		movs	r3, #0
 1931 0008 0193     		str	r3, [sp, #4]
 813:Drivers/STM32F4xx_HAL_Driver/Src/stm32f4xx_ll_sdmmc.c ****   sdmmc_cmdinit.Response         = SDIO_RESPONSE_NO;
 1932              		.loc 1 813 0
 1933 000a 0293     		str	r3, [sp, #8]
 814:Drivers/STM32F4xx_HAL_Driver/Src/stm32f4xx_ll_sdmmc.c ****   sdmmc_cmdinit.WaitForInterrupt = SDIO_WAIT_NO;
 1934              		.loc 1 814 0
 1935 000c 0393     		str	r3, [sp, #12]
 815:Drivers/STM32F4xx_HAL_Driver/Src/stm32f4xx_ll_sdmmc.c ****   sdmmc_cmdinit.CPSM             = SDIO_CPSM_ENABLE;
 1936              		.loc 1 815 0
 1937 000e 0493     		str	r3, [sp, #16]
 816:Drivers/STM32F4xx_HAL_Driver/Src/stm32f4xx_ll_sdmmc.c ****   (void)SDIO_SendCommand(SDIOx, &sdmmc_cmdinit);
 1938              		.loc 1 816 0
 1939 0010 4FF48063 		mov	r3, #1024
 1940 0014 0593     		str	r3, [sp, #20]
 817:Drivers/STM32F4xx_HAL_Driver/Src/stm32f4xx_ll_sdmmc.c ****   
 1941              		.loc 1 817 0
 1942 0016 01A9     		add	r1, sp, #4
 1943 0018 FFF7FEFF 		bl	SDIO_SendCommand
 1944              	.LVL199:
 820:Drivers/STM32F4xx_HAL_Driver/Src/stm32f4xx_ll_sdmmc.c **** 
 1945              		.loc 1 820 0
 1946 001c 2046     		mov	r0, r4
 1947 001e FFF7FEFF 		bl	SDMMC_GetCmdError
 1948              	.LVL200:
 823:Drivers/STM32F4xx_HAL_Driver/Src/stm32f4xx_ll_sdmmc.c **** 
 1949              		.loc 1 823 0
 1950 0022 06B0     		add	sp, sp, #24
 1951              	.LCFI45:
 1952              		.cfi_def_cfa_offset 8
 1953              		@ sp needed
 1954 0024 10BD     		pop	{r4, pc}
 1955              		.cfi_endproc
 1956              	.LFE155:
 1958              		.section	.text.SDMMC_CmdOperCond,"ax",%progbits
 1959              		.align	1
 1960              		.global	SDMMC_CmdOperCond
 1961              		.syntax unified
 1962              		.thumb
 1963              		.thumb_func
 1964              		.fpu fpv4-sp-d16
 1966              	SDMMC_CmdOperCond:
 1967              	.LFB156:
 831:Drivers/STM32F4xx_HAL_Driver/Src/stm32f4xx_ll_sdmmc.c ****   SDIO_CmdInitTypeDef  sdmmc_cmdinit;
 1968              		.loc 1 831 0
 1969              		.cfi_startproc
 1970              		@ args = 0, pretend = 0, frame = 24
 1971              		@ frame_needed = 0, uses_anonymous_args = 0
 1972              	.LVL201:
 1973 0000 10B5     		push	{r4, lr}
 1974              	.LCFI46:
 1975              		.cfi_def_cfa_offset 8
 1976              		.cfi_offset 4, -8
 1977              		.cfi_offset 14, -4
 1978 0002 86B0     		sub	sp, sp, #24
 1979              	.LCFI47:
 1980              		.cfi_def_cfa_offset 32
ARM GAS  C:\Users\Cihat\AppData\Local\Temp\ccTPXPIa.s 			page 66


 1981 0004 0446     		mov	r4, r0
 840:Drivers/STM32F4xx_HAL_Driver/Src/stm32f4xx_ll_sdmmc.c ****   sdmmc_cmdinit.CmdIndex         = SDMMC_CMD_HS_SEND_EXT_CSD;
 1982              		.loc 1 840 0
 1983 0006 4FF4D573 		mov	r3, #426
 1984 000a 0193     		str	r3, [sp, #4]
 841:Drivers/STM32F4xx_HAL_Driver/Src/stm32f4xx_ll_sdmmc.c ****   sdmmc_cmdinit.Response         = SDIO_RESPONSE_SHORT;
 1985              		.loc 1 841 0
 1986 000c 0823     		movs	r3, #8
 1987 000e 0293     		str	r3, [sp, #8]
 842:Drivers/STM32F4xx_HAL_Driver/Src/stm32f4xx_ll_sdmmc.c ****   sdmmc_cmdinit.WaitForInterrupt = SDIO_WAIT_NO;
 1988              		.loc 1 842 0
 1989 0010 4023     		movs	r3, #64
 1990 0012 0393     		str	r3, [sp, #12]
 843:Drivers/STM32F4xx_HAL_Driver/Src/stm32f4xx_ll_sdmmc.c ****   sdmmc_cmdinit.CPSM             = SDIO_CPSM_ENABLE;
 1991              		.loc 1 843 0
 1992 0014 0023     		movs	r3, #0
 1993 0016 0493     		str	r3, [sp, #16]
 844:Drivers/STM32F4xx_HAL_Driver/Src/stm32f4xx_ll_sdmmc.c ****   (void)SDIO_SendCommand(SDIOx, &sdmmc_cmdinit);
 1994              		.loc 1 844 0
 1995 0018 4FF48063 		mov	r3, #1024
 1996 001c 0593     		str	r3, [sp, #20]
 845:Drivers/STM32F4xx_HAL_Driver/Src/stm32f4xx_ll_sdmmc.c ****   
 1997              		.loc 1 845 0
 1998 001e 01A9     		add	r1, sp, #4
 1999 0020 FFF7FEFF 		bl	SDIO_SendCommand
 2000              	.LVL202:
 848:Drivers/STM32F4xx_HAL_Driver/Src/stm32f4xx_ll_sdmmc.c **** 
 2001              		.loc 1 848 0
 2002 0024 2046     		mov	r0, r4
 2003 0026 FFF7FEFF 		bl	SDMMC_GetCmdResp7
 2004              	.LVL203:
 851:Drivers/STM32F4xx_HAL_Driver/Src/stm32f4xx_ll_sdmmc.c **** 
 2005              		.loc 1 851 0
 2006 002a 06B0     		add	sp, sp, #24
 2007              	.LCFI48:
 2008              		.cfi_def_cfa_offset 8
 2009              		@ sp needed
 2010 002c 10BD     		pop	{r4, pc}
 2011              		.cfi_endproc
 2012              	.LFE156:
 2014              		.section	.text.SDMMC_CmdAppCommand,"ax",%progbits
 2015              		.align	1
 2016              		.global	SDMMC_CmdAppCommand
 2017              		.syntax unified
 2018              		.thumb
 2019              		.thumb_func
 2020              		.fpu fpv4-sp-d16
 2022              	SDMMC_CmdAppCommand:
 2023              	.LFB157:
 862:Drivers/STM32F4xx_HAL_Driver/Src/stm32f4xx_ll_sdmmc.c ****   SDIO_CmdInitTypeDef  sdmmc_cmdinit;
 2024              		.loc 1 862 0
 2025              		.cfi_startproc
 2026              		@ args = 0, pretend = 0, frame = 24
 2027              		@ frame_needed = 0, uses_anonymous_args = 0
 2028              	.LVL204:
 2029 0000 30B5     		push	{r4, r5, lr}
 2030              	.LCFI49:
ARM GAS  C:\Users\Cihat\AppData\Local\Temp\ccTPXPIa.s 			page 67


 2031              		.cfi_def_cfa_offset 12
 2032              		.cfi_offset 4, -12
 2033              		.cfi_offset 5, -8
 2034              		.cfi_offset 14, -4
 2035 0002 87B0     		sub	sp, sp, #28
 2036              	.LCFI50:
 2037              		.cfi_def_cfa_offset 40
 2038 0004 0546     		mov	r5, r0
 866:Drivers/STM32F4xx_HAL_Driver/Src/stm32f4xx_ll_sdmmc.c ****   sdmmc_cmdinit.CmdIndex         = SDMMC_CMD_APP_CMD;
 2039              		.loc 1 866 0
 2040 0006 0191     		str	r1, [sp, #4]
 867:Drivers/STM32F4xx_HAL_Driver/Src/stm32f4xx_ll_sdmmc.c ****   sdmmc_cmdinit.Response         = SDIO_RESPONSE_SHORT;
 2041              		.loc 1 867 0
 2042 0008 3724     		movs	r4, #55
 2043 000a 0294     		str	r4, [sp, #8]
 868:Drivers/STM32F4xx_HAL_Driver/Src/stm32f4xx_ll_sdmmc.c ****   sdmmc_cmdinit.WaitForInterrupt = SDIO_WAIT_NO;
 2044              		.loc 1 868 0
 2045 000c 4023     		movs	r3, #64
 2046 000e 0393     		str	r3, [sp, #12]
 869:Drivers/STM32F4xx_HAL_Driver/Src/stm32f4xx_ll_sdmmc.c ****   sdmmc_cmdinit.CPSM             = SDIO_CPSM_ENABLE;
 2047              		.loc 1 869 0
 2048 0010 0023     		movs	r3, #0
 2049 0012 0493     		str	r3, [sp, #16]
 870:Drivers/STM32F4xx_HAL_Driver/Src/stm32f4xx_ll_sdmmc.c ****   (void)SDIO_SendCommand(SDIOx, &sdmmc_cmdinit);
 2050              		.loc 1 870 0
 2051 0014 4FF48063 		mov	r3, #1024
 2052 0018 0593     		str	r3, [sp, #20]
 871:Drivers/STM32F4xx_HAL_Driver/Src/stm32f4xx_ll_sdmmc.c ****   
 2053              		.loc 1 871 0
 2054 001a 01A9     		add	r1, sp, #4
 2055              	.LVL205:
 2056 001c FFF7FEFF 		bl	SDIO_SendCommand
 2057              	.LVL206:
 877:Drivers/STM32F4xx_HAL_Driver/Src/stm32f4xx_ll_sdmmc.c **** 
 2058              		.loc 1 877 0
 2059 0020 41F28832 		movw	r2, #5000
 2060 0024 2146     		mov	r1, r4
 2061 0026 2846     		mov	r0, r5
 2062 0028 FFF7FEFF 		bl	SDMMC_GetCmdResp1
 2063              	.LVL207:
 880:Drivers/STM32F4xx_HAL_Driver/Src/stm32f4xx_ll_sdmmc.c **** 
 2064              		.loc 1 880 0
 2065 002c 07B0     		add	sp, sp, #28
 2066              	.LCFI51:
 2067              		.cfi_def_cfa_offset 12
 2068              		@ sp needed
 2069 002e 30BD     		pop	{r4, r5, pc}
 2070              		.cfi_endproc
 2071              	.LFE157:
 2073              		.section	.text.SDMMC_CmdAppOperCommand,"ax",%progbits
 2074              		.align	1
 2075              		.global	SDMMC_CmdAppOperCommand
 2076              		.syntax unified
 2077              		.thumb
 2078              		.thumb_func
 2079              		.fpu fpv4-sp-d16
 2081              	SDMMC_CmdAppOperCommand:
ARM GAS  C:\Users\Cihat\AppData\Local\Temp\ccTPXPIa.s 			page 68


 2082              	.LFB158:
 890:Drivers/STM32F4xx_HAL_Driver/Src/stm32f4xx_ll_sdmmc.c ****   SDIO_CmdInitTypeDef  sdmmc_cmdinit;
 2083              		.loc 1 890 0
 2084              		.cfi_startproc
 2085              		@ args = 0, pretend = 0, frame = 24
 2086              		@ frame_needed = 0, uses_anonymous_args = 0
 2087              	.LVL208:
 2088 0000 10B5     		push	{r4, lr}
 2089              	.LCFI52:
 2090              		.cfi_def_cfa_offset 8
 2091              		.cfi_offset 4, -8
 2092              		.cfi_offset 14, -4
 2093 0002 86B0     		sub	sp, sp, #24
 2094              	.LCFI53:
 2095              		.cfi_def_cfa_offset 32
 2096 0004 0446     		mov	r4, r0
 894:Drivers/STM32F4xx_HAL_Driver/Src/stm32f4xx_ll_sdmmc.c ****   sdmmc_cmdinit.CmdIndex         = SDMMC_CMD_SD_APP_OP_COND;
 2097              		.loc 1 894 0
 2098 0006 41F00041 		orr	r1, r1, #-2147483648
 2099              	.LVL209:
 2100 000a 41F48011 		orr	r1, r1, #1048576
 2101 000e 0191     		str	r1, [sp, #4]
 895:Drivers/STM32F4xx_HAL_Driver/Src/stm32f4xx_ll_sdmmc.c ****   sdmmc_cmdinit.Response         = SDIO_RESPONSE_SHORT;
 2102              		.loc 1 895 0
 2103 0010 2923     		movs	r3, #41
 2104 0012 0293     		str	r3, [sp, #8]
 896:Drivers/STM32F4xx_HAL_Driver/Src/stm32f4xx_ll_sdmmc.c ****   sdmmc_cmdinit.WaitForInterrupt = SDIO_WAIT_NO;
 2105              		.loc 1 896 0
 2106 0014 4023     		movs	r3, #64
 2107 0016 0393     		str	r3, [sp, #12]
 897:Drivers/STM32F4xx_HAL_Driver/Src/stm32f4xx_ll_sdmmc.c ****   sdmmc_cmdinit.CPSM             = SDIO_CPSM_ENABLE;
 2108              		.loc 1 897 0
 2109 0018 0023     		movs	r3, #0
 2110 001a 0493     		str	r3, [sp, #16]
 898:Drivers/STM32F4xx_HAL_Driver/Src/stm32f4xx_ll_sdmmc.c ****   (void)SDIO_SendCommand(SDIOx, &sdmmc_cmdinit);
 2111              		.loc 1 898 0
 2112 001c 4FF48063 		mov	r3, #1024
 2113 0020 0593     		str	r3, [sp, #20]
 899:Drivers/STM32F4xx_HAL_Driver/Src/stm32f4xx_ll_sdmmc.c ****   
 2114              		.loc 1 899 0
 2115 0022 01A9     		add	r1, sp, #4
 2116 0024 FFF7FEFF 		bl	SDIO_SendCommand
 2117              	.LVL210:
 902:Drivers/STM32F4xx_HAL_Driver/Src/stm32f4xx_ll_sdmmc.c **** 
 2118              		.loc 1 902 0
 2119 0028 2046     		mov	r0, r4
 2120 002a FFF7FEFF 		bl	SDMMC_GetCmdResp3
 2121              	.LVL211:
 905:Drivers/STM32F4xx_HAL_Driver/Src/stm32f4xx_ll_sdmmc.c **** 
 2122              		.loc 1 905 0
 2123 002e 06B0     		add	sp, sp, #24
 2124              	.LCFI54:
 2125              		.cfi_def_cfa_offset 8
 2126              		@ sp needed
 2127 0030 10BD     		pop	{r4, pc}
 2128              		.cfi_endproc
 2129              	.LFE158:
ARM GAS  C:\Users\Cihat\AppData\Local\Temp\ccTPXPIa.s 			page 69


 2131              		.section	.text.SDMMC_CmdBusWidth,"ax",%progbits
 2132              		.align	1
 2133              		.global	SDMMC_CmdBusWidth
 2134              		.syntax unified
 2135              		.thumb
 2136              		.thumb_func
 2137              		.fpu fpv4-sp-d16
 2139              	SDMMC_CmdBusWidth:
 2140              	.LFB159:
 914:Drivers/STM32F4xx_HAL_Driver/Src/stm32f4xx_ll_sdmmc.c ****   SDIO_CmdInitTypeDef  sdmmc_cmdinit;
 2141              		.loc 1 914 0
 2142              		.cfi_startproc
 2143              		@ args = 0, pretend = 0, frame = 24
 2144              		@ frame_needed = 0, uses_anonymous_args = 0
 2145              	.LVL212:
 2146 0000 30B5     		push	{r4, r5, lr}
 2147              	.LCFI55:
 2148              		.cfi_def_cfa_offset 12
 2149              		.cfi_offset 4, -12
 2150              		.cfi_offset 5, -8
 2151              		.cfi_offset 14, -4
 2152 0002 87B0     		sub	sp, sp, #28
 2153              	.LCFI56:
 2154              		.cfi_def_cfa_offset 40
 2155 0004 0546     		mov	r5, r0
 918:Drivers/STM32F4xx_HAL_Driver/Src/stm32f4xx_ll_sdmmc.c ****   sdmmc_cmdinit.CmdIndex         = SDMMC_CMD_APP_SD_SET_BUSWIDTH;
 2156              		.loc 1 918 0
 2157 0006 0191     		str	r1, [sp, #4]
 919:Drivers/STM32F4xx_HAL_Driver/Src/stm32f4xx_ll_sdmmc.c ****   sdmmc_cmdinit.Response         = SDIO_RESPONSE_SHORT;
 2158              		.loc 1 919 0
 2159 0008 0624     		movs	r4, #6
 2160 000a 0294     		str	r4, [sp, #8]
 920:Drivers/STM32F4xx_HAL_Driver/Src/stm32f4xx_ll_sdmmc.c ****   sdmmc_cmdinit.WaitForInterrupt = SDIO_WAIT_NO;
 2161              		.loc 1 920 0
 2162 000c 4023     		movs	r3, #64
 2163 000e 0393     		str	r3, [sp, #12]
 921:Drivers/STM32F4xx_HAL_Driver/Src/stm32f4xx_ll_sdmmc.c ****   sdmmc_cmdinit.CPSM             = SDIO_CPSM_ENABLE;
 2164              		.loc 1 921 0
 2165 0010 0023     		movs	r3, #0
 2166 0012 0493     		str	r3, [sp, #16]
 922:Drivers/STM32F4xx_HAL_Driver/Src/stm32f4xx_ll_sdmmc.c ****   (void)SDIO_SendCommand(SDIOx, &sdmmc_cmdinit);
 2167              		.loc 1 922 0
 2168 0014 4FF48063 		mov	r3, #1024
 2169 0018 0593     		str	r3, [sp, #20]
 923:Drivers/STM32F4xx_HAL_Driver/Src/stm32f4xx_ll_sdmmc.c ****   
 2170              		.loc 1 923 0
 2171 001a 01A9     		add	r1, sp, #4
 2172              	.LVL213:
 2173 001c FFF7FEFF 		bl	SDIO_SendCommand
 2174              	.LVL214:
 926:Drivers/STM32F4xx_HAL_Driver/Src/stm32f4xx_ll_sdmmc.c **** 
 2175              		.loc 1 926 0
 2176 0020 41F28832 		movw	r2, #5000
 2177 0024 2146     		mov	r1, r4
 2178 0026 2846     		mov	r0, r5
 2179 0028 FFF7FEFF 		bl	SDMMC_GetCmdResp1
 2180              	.LVL215:
ARM GAS  C:\Users\Cihat\AppData\Local\Temp\ccTPXPIa.s 			page 70


 929:Drivers/STM32F4xx_HAL_Driver/Src/stm32f4xx_ll_sdmmc.c **** 
 2181              		.loc 1 929 0
 2182 002c 07B0     		add	sp, sp, #28
 2183              	.LCFI57:
 2184              		.cfi_def_cfa_offset 12
 2185              		@ sp needed
 2186 002e 30BD     		pop	{r4, r5, pc}
 2187              		.cfi_endproc
 2188              	.LFE159:
 2190              		.section	.text.SDMMC_CmdSendSCR,"ax",%progbits
 2191              		.align	1
 2192              		.global	SDMMC_CmdSendSCR
 2193              		.syntax unified
 2194              		.thumb
 2195              		.thumb_func
 2196              		.fpu fpv4-sp-d16
 2198              	SDMMC_CmdSendSCR:
 2199              	.LFB160:
 937:Drivers/STM32F4xx_HAL_Driver/Src/stm32f4xx_ll_sdmmc.c ****   SDIO_CmdInitTypeDef  sdmmc_cmdinit;
 2200              		.loc 1 937 0
 2201              		.cfi_startproc
 2202              		@ args = 0, pretend = 0, frame = 24
 2203              		@ frame_needed = 0, uses_anonymous_args = 0
 2204              	.LVL216:
 2205 0000 30B5     		push	{r4, r5, lr}
 2206              	.LCFI58:
 2207              		.cfi_def_cfa_offset 12
 2208              		.cfi_offset 4, -12
 2209              		.cfi_offset 5, -8
 2210              		.cfi_offset 14, -4
 2211 0002 87B0     		sub	sp, sp, #28
 2212              	.LCFI59:
 2213              		.cfi_def_cfa_offset 40
 2214 0004 0546     		mov	r5, r0
 942:Drivers/STM32F4xx_HAL_Driver/Src/stm32f4xx_ll_sdmmc.c ****   sdmmc_cmdinit.CmdIndex         = SDMMC_CMD_SD_APP_SEND_SCR;
 2215              		.loc 1 942 0
 2216 0006 0023     		movs	r3, #0
 2217 0008 0193     		str	r3, [sp, #4]
 943:Drivers/STM32F4xx_HAL_Driver/Src/stm32f4xx_ll_sdmmc.c ****   sdmmc_cmdinit.Response         = SDIO_RESPONSE_SHORT;
 2218              		.loc 1 943 0
 2219 000a 3324     		movs	r4, #51
 2220 000c 0294     		str	r4, [sp, #8]
 944:Drivers/STM32F4xx_HAL_Driver/Src/stm32f4xx_ll_sdmmc.c ****   sdmmc_cmdinit.WaitForInterrupt = SDIO_WAIT_NO;
 2221              		.loc 1 944 0
 2222 000e 4022     		movs	r2, #64
 2223 0010 0392     		str	r2, [sp, #12]
 945:Drivers/STM32F4xx_HAL_Driver/Src/stm32f4xx_ll_sdmmc.c ****   sdmmc_cmdinit.CPSM             = SDIO_CPSM_ENABLE;
 2224              		.loc 1 945 0
 2225 0012 0493     		str	r3, [sp, #16]
 946:Drivers/STM32F4xx_HAL_Driver/Src/stm32f4xx_ll_sdmmc.c ****   (void)SDIO_SendCommand(SDIOx, &sdmmc_cmdinit);
 2226              		.loc 1 946 0
 2227 0014 4FF48063 		mov	r3, #1024
 2228 0018 0593     		str	r3, [sp, #20]
 947:Drivers/STM32F4xx_HAL_Driver/Src/stm32f4xx_ll_sdmmc.c ****   
 2229              		.loc 1 947 0
 2230 001a 01A9     		add	r1, sp, #4
 2231 001c FFF7FEFF 		bl	SDIO_SendCommand
ARM GAS  C:\Users\Cihat\AppData\Local\Temp\ccTPXPIa.s 			page 71


 2232              	.LVL217:
 950:Drivers/STM32F4xx_HAL_Driver/Src/stm32f4xx_ll_sdmmc.c **** 
 2233              		.loc 1 950 0
 2234 0020 41F28832 		movw	r2, #5000
 2235 0024 2146     		mov	r1, r4
 2236 0026 2846     		mov	r0, r5
 2237 0028 FFF7FEFF 		bl	SDMMC_GetCmdResp1
 2238              	.LVL218:
 953:Drivers/STM32F4xx_HAL_Driver/Src/stm32f4xx_ll_sdmmc.c **** 
 2239              		.loc 1 953 0
 2240 002c 07B0     		add	sp, sp, #28
 2241              	.LCFI60:
 2242              		.cfi_def_cfa_offset 12
 2243              		@ sp needed
 2244 002e 30BD     		pop	{r4, r5, pc}
 2245              		.cfi_endproc
 2246              	.LFE160:
 2248              		.section	.text.SDMMC_CmdSendCID,"ax",%progbits
 2249              		.align	1
 2250              		.global	SDMMC_CmdSendCID
 2251              		.syntax unified
 2252              		.thumb
 2253              		.thumb_func
 2254              		.fpu fpv4-sp-d16
 2256              	SDMMC_CmdSendCID:
 2257              	.LFB161:
 961:Drivers/STM32F4xx_HAL_Driver/Src/stm32f4xx_ll_sdmmc.c ****   SDIO_CmdInitTypeDef  sdmmc_cmdinit;
 2258              		.loc 1 961 0
 2259              		.cfi_startproc
 2260              		@ args = 0, pretend = 0, frame = 24
 2261              		@ frame_needed = 0, uses_anonymous_args = 0
 2262              	.LVL219:
 2263 0000 10B5     		push	{r4, lr}
 2264              	.LCFI61:
 2265              		.cfi_def_cfa_offset 8
 2266              		.cfi_offset 4, -8
 2267              		.cfi_offset 14, -4
 2268 0002 86B0     		sub	sp, sp, #24
 2269              	.LCFI62:
 2270              		.cfi_def_cfa_offset 32
 2271 0004 0446     		mov	r4, r0
 966:Drivers/STM32F4xx_HAL_Driver/Src/stm32f4xx_ll_sdmmc.c ****   sdmmc_cmdinit.CmdIndex         = SDMMC_CMD_ALL_SEND_CID;
 2272              		.loc 1 966 0
 2273 0006 0023     		movs	r3, #0
 2274 0008 0193     		str	r3, [sp, #4]
 967:Drivers/STM32F4xx_HAL_Driver/Src/stm32f4xx_ll_sdmmc.c ****   sdmmc_cmdinit.Response         = SDIO_RESPONSE_LONG;
 2275              		.loc 1 967 0
 2276 000a 0222     		movs	r2, #2
 2277 000c 0292     		str	r2, [sp, #8]
 968:Drivers/STM32F4xx_HAL_Driver/Src/stm32f4xx_ll_sdmmc.c ****   sdmmc_cmdinit.WaitForInterrupt = SDIO_WAIT_NO;
 2278              		.loc 1 968 0
 2279 000e C022     		movs	r2, #192
 2280 0010 0392     		str	r2, [sp, #12]
 969:Drivers/STM32F4xx_HAL_Driver/Src/stm32f4xx_ll_sdmmc.c ****   sdmmc_cmdinit.CPSM             = SDIO_CPSM_ENABLE;
 2281              		.loc 1 969 0
 2282 0012 0493     		str	r3, [sp, #16]
 970:Drivers/STM32F4xx_HAL_Driver/Src/stm32f4xx_ll_sdmmc.c ****   (void)SDIO_SendCommand(SDIOx, &sdmmc_cmdinit);
ARM GAS  C:\Users\Cihat\AppData\Local\Temp\ccTPXPIa.s 			page 72


 2283              		.loc 1 970 0
 2284 0014 4FF48063 		mov	r3, #1024
 2285 0018 0593     		str	r3, [sp, #20]
 971:Drivers/STM32F4xx_HAL_Driver/Src/stm32f4xx_ll_sdmmc.c ****   
 2286              		.loc 1 971 0
 2287 001a 01A9     		add	r1, sp, #4
 2288 001c FFF7FEFF 		bl	SDIO_SendCommand
 2289              	.LVL220:
 974:Drivers/STM32F4xx_HAL_Driver/Src/stm32f4xx_ll_sdmmc.c **** 
 2290              		.loc 1 974 0
 2291 0020 2046     		mov	r0, r4
 2292 0022 FFF7FEFF 		bl	SDMMC_GetCmdResp2
 2293              	.LVL221:
 977:Drivers/STM32F4xx_HAL_Driver/Src/stm32f4xx_ll_sdmmc.c **** 
 2294              		.loc 1 977 0
 2295 0026 06B0     		add	sp, sp, #24
 2296              	.LCFI63:
 2297              		.cfi_def_cfa_offset 8
 2298              		@ sp needed
 2299 0028 10BD     		pop	{r4, pc}
 2300              		.cfi_endproc
 2301              	.LFE161:
 2303              		.section	.text.SDMMC_CmdSendCSD,"ax",%progbits
 2304              		.align	1
 2305              		.global	SDMMC_CmdSendCSD
 2306              		.syntax unified
 2307              		.thumb
 2308              		.thumb_func
 2309              		.fpu fpv4-sp-d16
 2311              	SDMMC_CmdSendCSD:
 2312              	.LFB162:
 986:Drivers/STM32F4xx_HAL_Driver/Src/stm32f4xx_ll_sdmmc.c ****   SDIO_CmdInitTypeDef  sdmmc_cmdinit;
 2313              		.loc 1 986 0
 2314              		.cfi_startproc
 2315              		@ args = 0, pretend = 0, frame = 24
 2316              		@ frame_needed = 0, uses_anonymous_args = 0
 2317              	.LVL222:
 2318 0000 10B5     		push	{r4, lr}
 2319              	.LCFI64:
 2320              		.cfi_def_cfa_offset 8
 2321              		.cfi_offset 4, -8
 2322              		.cfi_offset 14, -4
 2323 0002 86B0     		sub	sp, sp, #24
 2324              	.LCFI65:
 2325              		.cfi_def_cfa_offset 32
 2326 0004 0446     		mov	r4, r0
 991:Drivers/STM32F4xx_HAL_Driver/Src/stm32f4xx_ll_sdmmc.c ****   sdmmc_cmdinit.CmdIndex         = SDMMC_CMD_SEND_CSD;
 2327              		.loc 1 991 0
 2328 0006 0191     		str	r1, [sp, #4]
 992:Drivers/STM32F4xx_HAL_Driver/Src/stm32f4xx_ll_sdmmc.c ****   sdmmc_cmdinit.Response         = SDIO_RESPONSE_LONG;
 2329              		.loc 1 992 0
 2330 0008 0923     		movs	r3, #9
 2331 000a 0293     		str	r3, [sp, #8]
 993:Drivers/STM32F4xx_HAL_Driver/Src/stm32f4xx_ll_sdmmc.c ****   sdmmc_cmdinit.WaitForInterrupt = SDIO_WAIT_NO;
 2332              		.loc 1 993 0
 2333 000c C023     		movs	r3, #192
 2334 000e 0393     		str	r3, [sp, #12]
ARM GAS  C:\Users\Cihat\AppData\Local\Temp\ccTPXPIa.s 			page 73


 994:Drivers/STM32F4xx_HAL_Driver/Src/stm32f4xx_ll_sdmmc.c ****   sdmmc_cmdinit.CPSM             = SDIO_CPSM_ENABLE;
 2335              		.loc 1 994 0
 2336 0010 0023     		movs	r3, #0
 2337 0012 0493     		str	r3, [sp, #16]
 995:Drivers/STM32F4xx_HAL_Driver/Src/stm32f4xx_ll_sdmmc.c ****   (void)SDIO_SendCommand(SDIOx, &sdmmc_cmdinit);
 2338              		.loc 1 995 0
 2339 0014 4FF48063 		mov	r3, #1024
 2340 0018 0593     		str	r3, [sp, #20]
 996:Drivers/STM32F4xx_HAL_Driver/Src/stm32f4xx_ll_sdmmc.c ****   
 2341              		.loc 1 996 0
 2342 001a 01A9     		add	r1, sp, #4
 2343              	.LVL223:
 2344 001c FFF7FEFF 		bl	SDIO_SendCommand
 2345              	.LVL224:
 999:Drivers/STM32F4xx_HAL_Driver/Src/stm32f4xx_ll_sdmmc.c **** 
 2346              		.loc 1 999 0
 2347 0020 2046     		mov	r0, r4
 2348 0022 FFF7FEFF 		bl	SDMMC_GetCmdResp2
 2349              	.LVL225:
1002:Drivers/STM32F4xx_HAL_Driver/Src/stm32f4xx_ll_sdmmc.c **** 
 2350              		.loc 1 1002 0
 2351 0026 06B0     		add	sp, sp, #24
 2352              	.LCFI66:
 2353              		.cfi_def_cfa_offset 8
 2354              		@ sp needed
 2355 0028 10BD     		pop	{r4, pc}
 2356              		.cfi_endproc
 2357              	.LFE162:
 2359              		.section	.text.SDMMC_CmdSetRelAdd,"ax",%progbits
 2360              		.align	1
 2361              		.global	SDMMC_CmdSetRelAdd
 2362              		.syntax unified
 2363              		.thumb
 2364              		.thumb_func
 2365              		.fpu fpv4-sp-d16
 2367              	SDMMC_CmdSetRelAdd:
 2368              	.LFB163:
1011:Drivers/STM32F4xx_HAL_Driver/Src/stm32f4xx_ll_sdmmc.c ****   SDIO_CmdInitTypeDef  sdmmc_cmdinit;
 2369              		.loc 1 1011 0
 2370              		.cfi_startproc
 2371              		@ args = 0, pretend = 0, frame = 24
 2372              		@ frame_needed = 0, uses_anonymous_args = 0
 2373              	.LVL226:
 2374 0000 70B5     		push	{r4, r5, r6, lr}
 2375              	.LCFI67:
 2376              		.cfi_def_cfa_offset 16
 2377              		.cfi_offset 4, -16
 2378              		.cfi_offset 5, -12
 2379              		.cfi_offset 6, -8
 2380              		.cfi_offset 14, -4
 2381 0002 86B0     		sub	sp, sp, #24
 2382              	.LCFI68:
 2383              		.cfi_def_cfa_offset 40
 2384 0004 0546     		mov	r5, r0
 2385 0006 0E46     		mov	r6, r1
1016:Drivers/STM32F4xx_HAL_Driver/Src/stm32f4xx_ll_sdmmc.c ****   sdmmc_cmdinit.CmdIndex         = SDMMC_CMD_SET_REL_ADDR;
 2386              		.loc 1 1016 0
ARM GAS  C:\Users\Cihat\AppData\Local\Temp\ccTPXPIa.s 			page 74


 2387 0008 0023     		movs	r3, #0
 2388 000a 0193     		str	r3, [sp, #4]
1017:Drivers/STM32F4xx_HAL_Driver/Src/stm32f4xx_ll_sdmmc.c ****   sdmmc_cmdinit.Response         = SDIO_RESPONSE_SHORT;
 2389              		.loc 1 1017 0
 2390 000c 0324     		movs	r4, #3
 2391 000e 0294     		str	r4, [sp, #8]
1018:Drivers/STM32F4xx_HAL_Driver/Src/stm32f4xx_ll_sdmmc.c ****   sdmmc_cmdinit.WaitForInterrupt = SDIO_WAIT_NO;
 2392              		.loc 1 1018 0
 2393 0010 4022     		movs	r2, #64
 2394 0012 0392     		str	r2, [sp, #12]
1019:Drivers/STM32F4xx_HAL_Driver/Src/stm32f4xx_ll_sdmmc.c ****   sdmmc_cmdinit.CPSM             = SDIO_CPSM_ENABLE;
 2395              		.loc 1 1019 0
 2396 0014 0493     		str	r3, [sp, #16]
1020:Drivers/STM32F4xx_HAL_Driver/Src/stm32f4xx_ll_sdmmc.c ****   (void)SDIO_SendCommand(SDIOx, &sdmmc_cmdinit);
 2397              		.loc 1 1020 0
 2398 0016 4FF48063 		mov	r3, #1024
 2399 001a 0593     		str	r3, [sp, #20]
1021:Drivers/STM32F4xx_HAL_Driver/Src/stm32f4xx_ll_sdmmc.c ****   
 2400              		.loc 1 1021 0
 2401 001c 01A9     		add	r1, sp, #4
 2402              	.LVL227:
 2403 001e FFF7FEFF 		bl	SDIO_SendCommand
 2404              	.LVL228:
1024:Drivers/STM32F4xx_HAL_Driver/Src/stm32f4xx_ll_sdmmc.c **** 
 2405              		.loc 1 1024 0
 2406 0022 3246     		mov	r2, r6
 2407 0024 2146     		mov	r1, r4
 2408 0026 2846     		mov	r0, r5
 2409 0028 FFF7FEFF 		bl	SDMMC_GetCmdResp6
 2410              	.LVL229:
1027:Drivers/STM32F4xx_HAL_Driver/Src/stm32f4xx_ll_sdmmc.c **** 
 2411              		.loc 1 1027 0
 2412 002c 06B0     		add	sp, sp, #24
 2413              	.LCFI69:
 2414              		.cfi_def_cfa_offset 16
 2415              		@ sp needed
 2416 002e 70BD     		pop	{r4, r5, r6, pc}
 2417              		.cfi_endproc
 2418              	.LFE163:
 2420              		.section	.text.SDMMC_CmdSendStatus,"ax",%progbits
 2421              		.align	1
 2422              		.global	SDMMC_CmdSendStatus
 2423              		.syntax unified
 2424              		.thumb
 2425              		.thumb_func
 2426              		.fpu fpv4-sp-d16
 2428              	SDMMC_CmdSendStatus:
 2429              	.LFB164:
1036:Drivers/STM32F4xx_HAL_Driver/Src/stm32f4xx_ll_sdmmc.c ****   SDIO_CmdInitTypeDef  sdmmc_cmdinit;
 2430              		.loc 1 1036 0
 2431              		.cfi_startproc
 2432              		@ args = 0, pretend = 0, frame = 24
 2433              		@ frame_needed = 0, uses_anonymous_args = 0
 2434              	.LVL230:
 2435 0000 30B5     		push	{r4, r5, lr}
 2436              	.LCFI70:
 2437              		.cfi_def_cfa_offset 12
ARM GAS  C:\Users\Cihat\AppData\Local\Temp\ccTPXPIa.s 			page 75


 2438              		.cfi_offset 4, -12
 2439              		.cfi_offset 5, -8
 2440              		.cfi_offset 14, -4
 2441 0002 87B0     		sub	sp, sp, #28
 2442              	.LCFI71:
 2443              		.cfi_def_cfa_offset 40
 2444 0004 0546     		mov	r5, r0
1040:Drivers/STM32F4xx_HAL_Driver/Src/stm32f4xx_ll_sdmmc.c ****   sdmmc_cmdinit.CmdIndex         = SDMMC_CMD_SEND_STATUS;
 2445              		.loc 1 1040 0
 2446 0006 0191     		str	r1, [sp, #4]
1041:Drivers/STM32F4xx_HAL_Driver/Src/stm32f4xx_ll_sdmmc.c ****   sdmmc_cmdinit.Response         = SDIO_RESPONSE_SHORT;
 2447              		.loc 1 1041 0
 2448 0008 0D24     		movs	r4, #13
 2449 000a 0294     		str	r4, [sp, #8]
1042:Drivers/STM32F4xx_HAL_Driver/Src/stm32f4xx_ll_sdmmc.c ****   sdmmc_cmdinit.WaitForInterrupt = SDIO_WAIT_NO;
 2450              		.loc 1 1042 0
 2451 000c 4023     		movs	r3, #64
 2452 000e 0393     		str	r3, [sp, #12]
1043:Drivers/STM32F4xx_HAL_Driver/Src/stm32f4xx_ll_sdmmc.c ****   sdmmc_cmdinit.CPSM             = SDIO_CPSM_ENABLE;
 2453              		.loc 1 1043 0
 2454 0010 0023     		movs	r3, #0
 2455 0012 0493     		str	r3, [sp, #16]
1044:Drivers/STM32F4xx_HAL_Driver/Src/stm32f4xx_ll_sdmmc.c ****   (void)SDIO_SendCommand(SDIOx, &sdmmc_cmdinit);
 2456              		.loc 1 1044 0
 2457 0014 4FF48063 		mov	r3, #1024
 2458 0018 0593     		str	r3, [sp, #20]
1045:Drivers/STM32F4xx_HAL_Driver/Src/stm32f4xx_ll_sdmmc.c ****   
 2459              		.loc 1 1045 0
 2460 001a 01A9     		add	r1, sp, #4
 2461              	.LVL231:
 2462 001c FFF7FEFF 		bl	SDIO_SendCommand
 2463              	.LVL232:
1048:Drivers/STM32F4xx_HAL_Driver/Src/stm32f4xx_ll_sdmmc.c **** 
 2464              		.loc 1 1048 0
 2465 0020 41F28832 		movw	r2, #5000
 2466 0024 2146     		mov	r1, r4
 2467 0026 2846     		mov	r0, r5
 2468 0028 FFF7FEFF 		bl	SDMMC_GetCmdResp1
 2469              	.LVL233:
1051:Drivers/STM32F4xx_HAL_Driver/Src/stm32f4xx_ll_sdmmc.c **** 
 2470              		.loc 1 1051 0
 2471 002c 07B0     		add	sp, sp, #28
 2472              	.LCFI72:
 2473              		.cfi_def_cfa_offset 12
 2474              		@ sp needed
 2475 002e 30BD     		pop	{r4, r5, pc}
 2476              		.cfi_endproc
 2477              	.LFE164:
 2479              		.section	.text.SDMMC_CmdStatusRegister,"ax",%progbits
 2480              		.align	1
 2481              		.global	SDMMC_CmdStatusRegister
 2482              		.syntax unified
 2483              		.thumb
 2484              		.thumb_func
 2485              		.fpu fpv4-sp-d16
 2487              	SDMMC_CmdStatusRegister:
 2488              	.LFB165:
ARM GAS  C:\Users\Cihat\AppData\Local\Temp\ccTPXPIa.s 			page 76


1059:Drivers/STM32F4xx_HAL_Driver/Src/stm32f4xx_ll_sdmmc.c ****   SDIO_CmdInitTypeDef  sdmmc_cmdinit;
 2489              		.loc 1 1059 0
 2490              		.cfi_startproc
 2491              		@ args = 0, pretend = 0, frame = 24
 2492              		@ frame_needed = 0, uses_anonymous_args = 0
 2493              	.LVL234:
 2494 0000 30B5     		push	{r4, r5, lr}
 2495              	.LCFI73:
 2496              		.cfi_def_cfa_offset 12
 2497              		.cfi_offset 4, -12
 2498              		.cfi_offset 5, -8
 2499              		.cfi_offset 14, -4
 2500 0002 87B0     		sub	sp, sp, #28
 2501              	.LCFI74:
 2502              		.cfi_def_cfa_offset 40
 2503 0004 0546     		mov	r5, r0
1063:Drivers/STM32F4xx_HAL_Driver/Src/stm32f4xx_ll_sdmmc.c ****   sdmmc_cmdinit.CmdIndex         = SDMMC_CMD_SD_APP_STATUS;
 2504              		.loc 1 1063 0
 2505 0006 0023     		movs	r3, #0
 2506 0008 0193     		str	r3, [sp, #4]
1064:Drivers/STM32F4xx_HAL_Driver/Src/stm32f4xx_ll_sdmmc.c ****   sdmmc_cmdinit.Response         = SDIO_RESPONSE_SHORT;
 2507              		.loc 1 1064 0
 2508 000a 0D24     		movs	r4, #13
 2509 000c 0294     		str	r4, [sp, #8]
1065:Drivers/STM32F4xx_HAL_Driver/Src/stm32f4xx_ll_sdmmc.c ****   sdmmc_cmdinit.WaitForInterrupt = SDIO_WAIT_NO;
 2510              		.loc 1 1065 0
 2511 000e 4022     		movs	r2, #64
 2512 0010 0392     		str	r2, [sp, #12]
1066:Drivers/STM32F4xx_HAL_Driver/Src/stm32f4xx_ll_sdmmc.c ****   sdmmc_cmdinit.CPSM             = SDIO_CPSM_ENABLE;
 2513              		.loc 1 1066 0
 2514 0012 0493     		str	r3, [sp, #16]
1067:Drivers/STM32F4xx_HAL_Driver/Src/stm32f4xx_ll_sdmmc.c ****   (void)SDIO_SendCommand(SDIOx, &sdmmc_cmdinit);
 2515              		.loc 1 1067 0
 2516 0014 4FF48063 		mov	r3, #1024
 2517 0018 0593     		str	r3, [sp, #20]
1068:Drivers/STM32F4xx_HAL_Driver/Src/stm32f4xx_ll_sdmmc.c ****   
 2518              		.loc 1 1068 0
 2519 001a 01A9     		add	r1, sp, #4
 2520 001c FFF7FEFF 		bl	SDIO_SendCommand
 2521              	.LVL235:
1071:Drivers/STM32F4xx_HAL_Driver/Src/stm32f4xx_ll_sdmmc.c **** 
 2522              		.loc 1 1071 0
 2523 0020 41F28832 		movw	r2, #5000
 2524 0024 2146     		mov	r1, r4
 2525 0026 2846     		mov	r0, r5
 2526 0028 FFF7FEFF 		bl	SDMMC_GetCmdResp1
 2527              	.LVL236:
1074:Drivers/STM32F4xx_HAL_Driver/Src/stm32f4xx_ll_sdmmc.c **** 
 2528              		.loc 1 1074 0
 2529 002c 07B0     		add	sp, sp, #28
 2530              	.LCFI75:
 2531              		.cfi_def_cfa_offset 12
 2532              		@ sp needed
 2533 002e 30BD     		pop	{r4, r5, pc}
 2534              		.cfi_endproc
 2535              	.LFE165:
 2537              		.section	.text.SDMMC_CmdOpCondition,"ax",%progbits
ARM GAS  C:\Users\Cihat\AppData\Local\Temp\ccTPXPIa.s 			page 77


 2538              		.align	1
 2539              		.global	SDMMC_CmdOpCondition
 2540              		.syntax unified
 2541              		.thumb
 2542              		.thumb_func
 2543              		.fpu fpv4-sp-d16
 2545              	SDMMC_CmdOpCondition:
 2546              	.LFB166:
1084:Drivers/STM32F4xx_HAL_Driver/Src/stm32f4xx_ll_sdmmc.c ****   SDIO_CmdInitTypeDef  sdmmc_cmdinit;
 2547              		.loc 1 1084 0
 2548              		.cfi_startproc
 2549              		@ args = 0, pretend = 0, frame = 24
 2550              		@ frame_needed = 0, uses_anonymous_args = 0
 2551              	.LVL237:
 2552 0000 10B5     		push	{r4, lr}
 2553              	.LCFI76:
 2554              		.cfi_def_cfa_offset 8
 2555              		.cfi_offset 4, -8
 2556              		.cfi_offset 14, -4
 2557 0002 86B0     		sub	sp, sp, #24
 2558              	.LCFI77:
 2559              		.cfi_def_cfa_offset 32
 2560 0004 0446     		mov	r4, r0
1088:Drivers/STM32F4xx_HAL_Driver/Src/stm32f4xx_ll_sdmmc.c ****   sdmmc_cmdinit.CmdIndex         = SDMMC_CMD_SEND_OP_COND;
 2561              		.loc 1 1088 0
 2562 0006 0191     		str	r1, [sp, #4]
1089:Drivers/STM32F4xx_HAL_Driver/Src/stm32f4xx_ll_sdmmc.c ****   sdmmc_cmdinit.Response         = SDIO_RESPONSE_SHORT;
 2563              		.loc 1 1089 0
 2564 0008 0123     		movs	r3, #1
 2565 000a 0293     		str	r3, [sp, #8]
1090:Drivers/STM32F4xx_HAL_Driver/Src/stm32f4xx_ll_sdmmc.c ****   sdmmc_cmdinit.WaitForInterrupt = SDIO_WAIT_NO;
 2566              		.loc 1 1090 0
 2567 000c 4023     		movs	r3, #64
 2568 000e 0393     		str	r3, [sp, #12]
1091:Drivers/STM32F4xx_HAL_Driver/Src/stm32f4xx_ll_sdmmc.c ****   sdmmc_cmdinit.CPSM             = SDIO_CPSM_ENABLE;
 2569              		.loc 1 1091 0
 2570 0010 0023     		movs	r3, #0
 2571 0012 0493     		str	r3, [sp, #16]
1092:Drivers/STM32F4xx_HAL_Driver/Src/stm32f4xx_ll_sdmmc.c ****   (void)SDIO_SendCommand(SDIOx, &sdmmc_cmdinit);
 2572              		.loc 1 1092 0
 2573 0014 4FF48063 		mov	r3, #1024
 2574 0018 0593     		str	r3, [sp, #20]
1093:Drivers/STM32F4xx_HAL_Driver/Src/stm32f4xx_ll_sdmmc.c ****   
 2575              		.loc 1 1093 0
 2576 001a 01A9     		add	r1, sp, #4
 2577              	.LVL238:
 2578 001c FFF7FEFF 		bl	SDIO_SendCommand
 2579              	.LVL239:
1096:Drivers/STM32F4xx_HAL_Driver/Src/stm32f4xx_ll_sdmmc.c **** 
 2580              		.loc 1 1096 0
 2581 0020 2046     		mov	r0, r4
 2582 0022 FFF7FEFF 		bl	SDMMC_GetCmdResp3
 2583              	.LVL240:
1099:Drivers/STM32F4xx_HAL_Driver/Src/stm32f4xx_ll_sdmmc.c **** 
 2584              		.loc 1 1099 0
 2585 0026 06B0     		add	sp, sp, #24
 2586              	.LCFI78:
ARM GAS  C:\Users\Cihat\AppData\Local\Temp\ccTPXPIa.s 			page 78


 2587              		.cfi_def_cfa_offset 8
 2588              		@ sp needed
 2589 0028 10BD     		pop	{r4, pc}
 2590              		.cfi_endproc
 2591              	.LFE166:
 2593              		.section	.text.SDMMC_CmdSwitch,"ax",%progbits
 2594              		.align	1
 2595              		.global	SDMMC_CmdSwitch
 2596              		.syntax unified
 2597              		.thumb
 2598              		.thumb_func
 2599              		.fpu fpv4-sp-d16
 2601              	SDMMC_CmdSwitch:
 2602              	.LFB167:
1108:Drivers/STM32F4xx_HAL_Driver/Src/stm32f4xx_ll_sdmmc.c ****   SDIO_CmdInitTypeDef  sdmmc_cmdinit;
 2603              		.loc 1 1108 0
 2604              		.cfi_startproc
 2605              		@ args = 0, pretend = 0, frame = 24
 2606              		@ frame_needed = 0, uses_anonymous_args = 0
 2607              	.LVL241:
 2608 0000 30B5     		push	{r4, r5, lr}
 2609              	.LCFI79:
 2610              		.cfi_def_cfa_offset 12
 2611              		.cfi_offset 4, -12
 2612              		.cfi_offset 5, -8
 2613              		.cfi_offset 14, -4
 2614 0002 87B0     		sub	sp, sp, #28
 2615              	.LCFI80:
 2616              		.cfi_def_cfa_offset 40
 2617 0004 0546     		mov	r5, r0
1114:Drivers/STM32F4xx_HAL_Driver/Src/stm32f4xx_ll_sdmmc.c ****   sdmmc_cmdinit.CmdIndex         = SDMMC_CMD_HS_SWITCH;
 2618              		.loc 1 1114 0
 2619 0006 0191     		str	r1, [sp, #4]
1115:Drivers/STM32F4xx_HAL_Driver/Src/stm32f4xx_ll_sdmmc.c ****   sdmmc_cmdinit.Response         = SDIO_RESPONSE_SHORT;
 2620              		.loc 1 1115 0
 2621 0008 0624     		movs	r4, #6
 2622 000a 0294     		str	r4, [sp, #8]
1116:Drivers/STM32F4xx_HAL_Driver/Src/stm32f4xx_ll_sdmmc.c ****   sdmmc_cmdinit.WaitForInterrupt = SDIO_WAIT_NO;
 2623              		.loc 1 1116 0
 2624 000c 4023     		movs	r3, #64
 2625 000e 0393     		str	r3, [sp, #12]
1117:Drivers/STM32F4xx_HAL_Driver/Src/stm32f4xx_ll_sdmmc.c ****   sdmmc_cmdinit.CPSM             = SDIO_CPSM_ENABLE;
 2626              		.loc 1 1117 0
 2627 0010 0023     		movs	r3, #0
 2628 0012 0493     		str	r3, [sp, #16]
1118:Drivers/STM32F4xx_HAL_Driver/Src/stm32f4xx_ll_sdmmc.c ****   (void)SDIO_SendCommand(SDIOx, &sdmmc_cmdinit);
 2629              		.loc 1 1118 0
 2630 0014 4FF48063 		mov	r3, #1024
 2631 0018 0593     		str	r3, [sp, #20]
1119:Drivers/STM32F4xx_HAL_Driver/Src/stm32f4xx_ll_sdmmc.c ****   
 2632              		.loc 1 1119 0
 2633 001a 01A9     		add	r1, sp, #4
 2634              	.LVL242:
 2635 001c FFF7FEFF 		bl	SDIO_SendCommand
 2636              	.LVL243:
1122:Drivers/STM32F4xx_HAL_Driver/Src/stm32f4xx_ll_sdmmc.c **** 
 2637              		.loc 1 1122 0
ARM GAS  C:\Users\Cihat\AppData\Local\Temp\ccTPXPIa.s 			page 79


 2638 0020 41F28832 		movw	r2, #5000
 2639 0024 2146     		mov	r1, r4
 2640 0026 2846     		mov	r0, r5
 2641 0028 FFF7FEFF 		bl	SDMMC_GetCmdResp1
 2642              	.LVL244:
1125:Drivers/STM32F4xx_HAL_Driver/Src/stm32f4xx_ll_sdmmc.c **** 
 2643              		.loc 1 1125 0
 2644 002c 07B0     		add	sp, sp, #28
 2645              	.LCFI81:
 2646              		.cfi_def_cfa_offset 12
 2647              		@ sp needed
 2648 002e 30BD     		pop	{r4, r5, pc}
 2649              		.cfi_endproc
 2650              	.LFE167:
 2652              		.section	.text.SDMMC_CmdSendEXTCSD,"ax",%progbits
 2653              		.align	1
 2654              		.global	SDMMC_CmdSendEXTCSD
 2655              		.syntax unified
 2656              		.thumb
 2657              		.thumb_func
 2658              		.fpu fpv4-sp-d16
 2660              	SDMMC_CmdSendEXTCSD:
 2661              	.LFB174:
1505:Drivers/STM32F4xx_HAL_Driver/Src/stm32f4xx_ll_sdmmc.c **** 
1506:Drivers/STM32F4xx_HAL_Driver/Src/stm32f4xx_ll_sdmmc.c **** /**
1507:Drivers/STM32F4xx_HAL_Driver/Src/stm32f4xx_ll_sdmmc.c ****   * @brief  Send the Send EXT_CSD command and check the response.
1508:Drivers/STM32F4xx_HAL_Driver/Src/stm32f4xx_ll_sdmmc.c ****   * @param  SDIOx: Pointer to SDMMC register base
1509:Drivers/STM32F4xx_HAL_Driver/Src/stm32f4xx_ll_sdmmc.c ****   * @param  Argument: Command Argument
1510:Drivers/STM32F4xx_HAL_Driver/Src/stm32f4xx_ll_sdmmc.c ****   * @retval HAL status
1511:Drivers/STM32F4xx_HAL_Driver/Src/stm32f4xx_ll_sdmmc.c ****   */
1512:Drivers/STM32F4xx_HAL_Driver/Src/stm32f4xx_ll_sdmmc.c **** uint32_t SDMMC_CmdSendEXTCSD(SDIO_TypeDef *SDIOx, uint32_t Argument)
1513:Drivers/STM32F4xx_HAL_Driver/Src/stm32f4xx_ll_sdmmc.c **** {
 2662              		.loc 1 1513 0
 2663              		.cfi_startproc
 2664              		@ args = 0, pretend = 0, frame = 24
 2665              		@ frame_needed = 0, uses_anonymous_args = 0
 2666              	.LVL245:
 2667 0000 30B5     		push	{r4, r5, lr}
 2668              	.LCFI82:
 2669              		.cfi_def_cfa_offset 12
 2670              		.cfi_offset 4, -12
 2671              		.cfi_offset 5, -8
 2672              		.cfi_offset 14, -4
 2673 0002 87B0     		sub	sp, sp, #28
 2674              	.LCFI83:
 2675              		.cfi_def_cfa_offset 40
 2676 0004 0546     		mov	r5, r0
1514:Drivers/STM32F4xx_HAL_Driver/Src/stm32f4xx_ll_sdmmc.c ****   SDIO_CmdInitTypeDef  sdmmc_cmdinit;
1515:Drivers/STM32F4xx_HAL_Driver/Src/stm32f4xx_ll_sdmmc.c ****   uint32_t errorstate;
1516:Drivers/STM32F4xx_HAL_Driver/Src/stm32f4xx_ll_sdmmc.c **** 
1517:Drivers/STM32F4xx_HAL_Driver/Src/stm32f4xx_ll_sdmmc.c ****   /* Send CMD9 SEND_CSD */
1518:Drivers/STM32F4xx_HAL_Driver/Src/stm32f4xx_ll_sdmmc.c ****   sdmmc_cmdinit.Argument         = Argument;
 2677              		.loc 1 1518 0
 2678 0006 0191     		str	r1, [sp, #4]
1519:Drivers/STM32F4xx_HAL_Driver/Src/stm32f4xx_ll_sdmmc.c ****   sdmmc_cmdinit.CmdIndex         = SDMMC_CMD_HS_SEND_EXT_CSD;
 2679              		.loc 1 1519 0
 2680 0008 0824     		movs	r4, #8
ARM GAS  C:\Users\Cihat\AppData\Local\Temp\ccTPXPIa.s 			page 80


 2681 000a 0294     		str	r4, [sp, #8]
1520:Drivers/STM32F4xx_HAL_Driver/Src/stm32f4xx_ll_sdmmc.c ****   sdmmc_cmdinit.Response         = SDIO_RESPONSE_SHORT;
 2682              		.loc 1 1520 0
 2683 000c 4023     		movs	r3, #64
 2684 000e 0393     		str	r3, [sp, #12]
1521:Drivers/STM32F4xx_HAL_Driver/Src/stm32f4xx_ll_sdmmc.c ****   sdmmc_cmdinit.WaitForInterrupt = SDIO_WAIT_NO;
 2685              		.loc 1 1521 0
 2686 0010 0023     		movs	r3, #0
 2687 0012 0493     		str	r3, [sp, #16]
1522:Drivers/STM32F4xx_HAL_Driver/Src/stm32f4xx_ll_sdmmc.c ****   sdmmc_cmdinit.CPSM             = SDIO_CPSM_ENABLE;
 2688              		.loc 1 1522 0
 2689 0014 4FF48063 		mov	r3, #1024
 2690 0018 0593     		str	r3, [sp, #20]
1523:Drivers/STM32F4xx_HAL_Driver/Src/stm32f4xx_ll_sdmmc.c ****   (void)SDIO_SendCommand(SDIOx, &sdmmc_cmdinit);
 2691              		.loc 1 1523 0
 2692 001a 01A9     		add	r1, sp, #4
 2693              	.LVL246:
 2694 001c FFF7FEFF 		bl	SDIO_SendCommand
 2695              	.LVL247:
1524:Drivers/STM32F4xx_HAL_Driver/Src/stm32f4xx_ll_sdmmc.c **** 
1525:Drivers/STM32F4xx_HAL_Driver/Src/stm32f4xx_ll_sdmmc.c ****   /* Check for error conditions */
1526:Drivers/STM32F4xx_HAL_Driver/Src/stm32f4xx_ll_sdmmc.c ****   errorstate = SDMMC_GetCmdResp1(SDIOx, SDMMC_CMD_HS_SEND_EXT_CSD,SDIO_CMDTIMEOUT);
 2696              		.loc 1 1526 0
 2697 0020 41F28832 		movw	r2, #5000
 2698 0024 2146     		mov	r1, r4
 2699 0026 2846     		mov	r0, r5
 2700 0028 FFF7FEFF 		bl	SDMMC_GetCmdResp1
 2701              	.LVL248:
1527:Drivers/STM32F4xx_HAL_Driver/Src/stm32f4xx_ll_sdmmc.c **** 
1528:Drivers/STM32F4xx_HAL_Driver/Src/stm32f4xx_ll_sdmmc.c ****   return errorstate;
1529:Drivers/STM32F4xx_HAL_Driver/Src/stm32f4xx_ll_sdmmc.c **** }
 2702              		.loc 1 1529 0
 2703 002c 07B0     		add	sp, sp, #28
 2704              	.LCFI84:
 2705              		.cfi_def_cfa_offset 12
 2706              		@ sp needed
 2707 002e 30BD     		pop	{r4, r5, pc}
 2708              		.cfi_endproc
 2709              	.LFE174:
 2711              		.text
 2712              	.Letext0:
 2713              		.file 2 "c:\\touchgfx\\4.17.0\\env\\mingw\\msys\\1.0\\gnu-arm-gcc\\arm-none-eabi\\include\\machine
 2714              		.file 3 "c:\\touchgfx\\4.17.0\\env\\mingw\\msys\\1.0\\gnu-arm-gcc\\arm-none-eabi\\include\\sys\\_s
 2715              		.file 4 "Drivers/CMSIS/Include/core_cm4.h"
 2716              		.file 5 "Drivers/CMSIS/Device/ST/STM32F4xx/Include/system_stm32f4xx.h"
 2717              		.file 6 "Drivers/CMSIS/Device/ST/STM32F4xx/Include/stm32f469xx.h"
 2718              		.file 7 "Drivers/STM32F4xx_HAL_Driver/Inc/stm32f4xx_hal_def.h"
 2719              		.file 8 "Drivers/STM32F4xx_HAL_Driver/Inc/stm32f4xx_ll_sdmmc.h"
 2720              		.file 9 "Drivers/STM32F4xx_HAL_Driver/Inc/stm32f4xx_hal.h"
ARM GAS  C:\Users\Cihat\AppData\Local\Temp\ccTPXPIa.s 			page 81


DEFINED SYMBOLS
                            *ABS*:00000000 stm32f4xx_ll_sdmmc.c
C:\Users\Cihat\AppData\Local\Temp\ccTPXPIa.s:18     .text.SDMMC_GetCmdError:00000000 $t
C:\Users\Cihat\AppData\Local\Temp\ccTPXPIa.s:24     .text.SDMMC_GetCmdError:00000000 SDMMC_GetCmdError
C:\Users\Cihat\AppData\Local\Temp\ccTPXPIa.s:71     .text.SDMMC_GetCmdError:00000030 $d
C:\Users\Cihat\AppData\Local\Temp\ccTPXPIa.s:77     .text.SDMMC_GetCmdResp2:00000000 $t
C:\Users\Cihat\AppData\Local\Temp\ccTPXPIa.s:83     .text.SDMMC_GetCmdResp2:00000000 SDMMC_GetCmdResp2
C:\Users\Cihat\AppData\Local\Temp\ccTPXPIa.s:158    .text.SDMMC_GetCmdResp2:00000058 $d
C:\Users\Cihat\AppData\Local\Temp\ccTPXPIa.s:164    .text.SDMMC_GetCmdResp3:00000000 $t
C:\Users\Cihat\AppData\Local\Temp\ccTPXPIa.s:170    .text.SDMMC_GetCmdResp3:00000000 SDMMC_GetCmdResp3
C:\Users\Cihat\AppData\Local\Temp\ccTPXPIa.s:232    .text.SDMMC_GetCmdResp3:00000048 $d
C:\Users\Cihat\AppData\Local\Temp\ccTPXPIa.s:238    .text.SDMMC_GetCmdResp7:00000000 $t
C:\Users\Cihat\AppData\Local\Temp\ccTPXPIa.s:244    .text.SDMMC_GetCmdResp7:00000000 SDMMC_GetCmdResp7
C:\Users\Cihat\AppData\Local\Temp\ccTPXPIa.s:329    .text.SDMMC_GetCmdResp7:00000064 $d
C:\Users\Cihat\AppData\Local\Temp\ccTPXPIa.s:335    .text.SDIO_Init:00000000 $t
C:\Users\Cihat\AppData\Local\Temp\ccTPXPIa.s:342    .text.SDIO_Init:00000000 SDIO_Init
C:\Users\Cihat\AppData\Local\Temp\ccTPXPIa.s:404    .text.SDIO_ReadFIFO:00000000 $t
C:\Users\Cihat\AppData\Local\Temp\ccTPXPIa.s:411    .text.SDIO_ReadFIFO:00000000 SDIO_ReadFIFO
C:\Users\Cihat\AppData\Local\Temp\ccTPXPIa.s:428    .text.SDIO_WriteFIFO:00000000 $t
C:\Users\Cihat\AppData\Local\Temp\ccTPXPIa.s:435    .text.SDIO_WriteFIFO:00000000 SDIO_WriteFIFO
C:\Users\Cihat\AppData\Local\Temp\ccTPXPIa.s:454    .text.SDIO_PowerState_ON:00000000 $t
C:\Users\Cihat\AppData\Local\Temp\ccTPXPIa.s:461    .text.SDIO_PowerState_ON:00000000 SDIO_PowerState_ON
C:\Users\Cihat\AppData\Local\Temp\ccTPXPIa.s:488    .text.SDIO_PowerState_OFF:00000000 $t
C:\Users\Cihat\AppData\Local\Temp\ccTPXPIa.s:495    .text.SDIO_PowerState_OFF:00000000 SDIO_PowerState_OFF
C:\Users\Cihat\AppData\Local\Temp\ccTPXPIa.s:514    .text.SDIO_GetPowerState:00000000 $t
C:\Users\Cihat\AppData\Local\Temp\ccTPXPIa.s:521    .text.SDIO_GetPowerState:00000000 SDIO_GetPowerState
C:\Users\Cihat\AppData\Local\Temp\ccTPXPIa.s:539    .text.SDIO_SendCommand:00000000 $t
C:\Users\Cihat\AppData\Local\Temp\ccTPXPIa.s:546    .text.SDIO_SendCommand:00000000 SDIO_SendCommand
C:\Users\Cihat\AppData\Local\Temp\ccTPXPIa.s:588    .text.SDIO_GetCommandResponse:00000000 $t
C:\Users\Cihat\AppData\Local\Temp\ccTPXPIa.s:595    .text.SDIO_GetCommandResponse:00000000 SDIO_GetCommandResponse
C:\Users\Cihat\AppData\Local\Temp\ccTPXPIa.s:613    .text.SDIO_GetResponse:00000000 $t
C:\Users\Cihat\AppData\Local\Temp\ccTPXPIa.s:620    .text.SDIO_GetResponse:00000000 SDIO_GetResponse
C:\Users\Cihat\AppData\Local\Temp\ccTPXPIa.s:640    .text.SDMMC_GetCmdResp1:00000000 $t
C:\Users\Cihat\AppData\Local\Temp\ccTPXPIa.s:646    .text.SDMMC_GetCmdResp1:00000000 SDMMC_GetCmdResp1
C:\Users\Cihat\AppData\Local\Temp\ccTPXPIa.s:918    .text.SDMMC_GetCmdResp1:0000014c $d
C:\Users\Cihat\AppData\Local\Temp\ccTPXPIa.s:925    .text.SDMMC_GetCmdResp6:00000000 $t
C:\Users\Cihat\AppData\Local\Temp\ccTPXPIa.s:931    .text.SDMMC_GetCmdResp6:00000000 SDMMC_GetCmdResp6
C:\Users\Cihat\AppData\Local\Temp\ccTPXPIa.s:1062   .text.SDMMC_GetCmdResp6:0000009c $d
C:\Users\Cihat\AppData\Local\Temp\ccTPXPIa.s:1068   .text.SDIO_ConfigData:00000000 $t
C:\Users\Cihat\AppData\Local\Temp\ccTPXPIa.s:1075   .text.SDIO_ConfigData:00000000 SDIO_ConfigData
C:\Users\Cihat\AppData\Local\Temp\ccTPXPIa.s:1119   .text.SDIO_GetDataCounter:00000000 $t
C:\Users\Cihat\AppData\Local\Temp\ccTPXPIa.s:1126   .text.SDIO_GetDataCounter:00000000 SDIO_GetDataCounter
C:\Users\Cihat\AppData\Local\Temp\ccTPXPIa.s:1143   .text.SDIO_GetFIFOCount:00000000 $t
C:\Users\Cihat\AppData\Local\Temp\ccTPXPIa.s:1150   .text.SDIO_GetFIFOCount:00000000 SDIO_GetFIFOCount
C:\Users\Cihat\AppData\Local\Temp\ccTPXPIa.s:1167   .text.SDIO_SetSDMMCReadWaitMode:00000000 $t
C:\Users\Cihat\AppData\Local\Temp\ccTPXPIa.s:1174   .text.SDIO_SetSDMMCReadWaitMode:00000000 SDIO_SetSDMMCReadWaitMode
C:\Users\Cihat\AppData\Local\Temp\ccTPXPIa.s:1196   .text.SDMMC_CmdBlockLength:00000000 $t
C:\Users\Cihat\AppData\Local\Temp\ccTPXPIa.s:1203   .text.SDMMC_CmdBlockLength:00000000 SDMMC_CmdBlockLength
C:\Users\Cihat\AppData\Local\Temp\ccTPXPIa.s:1255   .text.SDMMC_CmdReadSingleBlock:00000000 $t
C:\Users\Cihat\AppData\Local\Temp\ccTPXPIa.s:1262   .text.SDMMC_CmdReadSingleBlock:00000000 SDMMC_CmdReadSingleBlock
C:\Users\Cihat\AppData\Local\Temp\ccTPXPIa.s:1314   .text.SDMMC_CmdReadMultiBlock:00000000 $t
C:\Users\Cihat\AppData\Local\Temp\ccTPXPIa.s:1321   .text.SDMMC_CmdReadMultiBlock:00000000 SDMMC_CmdReadMultiBlock
C:\Users\Cihat\AppData\Local\Temp\ccTPXPIa.s:1373   .text.SDMMC_CmdWriteSingleBlock:00000000 $t
C:\Users\Cihat\AppData\Local\Temp\ccTPXPIa.s:1380   .text.SDMMC_CmdWriteSingleBlock:00000000 SDMMC_CmdWriteSingleBlock
C:\Users\Cihat\AppData\Local\Temp\ccTPXPIa.s:1432   .text.SDMMC_CmdWriteMultiBlock:00000000 $t
C:\Users\Cihat\AppData\Local\Temp\ccTPXPIa.s:1439   .text.SDMMC_CmdWriteMultiBlock:00000000 SDMMC_CmdWriteMultiBlock
C:\Users\Cihat\AppData\Local\Temp\ccTPXPIa.s:1491   .text.SDMMC_CmdSDEraseStartAdd:00000000 $t
ARM GAS  C:\Users\Cihat\AppData\Local\Temp\ccTPXPIa.s 			page 82


C:\Users\Cihat\AppData\Local\Temp\ccTPXPIa.s:1498   .text.SDMMC_CmdSDEraseStartAdd:00000000 SDMMC_CmdSDEraseStartAdd
C:\Users\Cihat\AppData\Local\Temp\ccTPXPIa.s:1550   .text.SDMMC_CmdSDEraseEndAdd:00000000 $t
C:\Users\Cihat\AppData\Local\Temp\ccTPXPIa.s:1557   .text.SDMMC_CmdSDEraseEndAdd:00000000 SDMMC_CmdSDEraseEndAdd
C:\Users\Cihat\AppData\Local\Temp\ccTPXPIa.s:1609   .text.SDMMC_CmdEraseStartAdd:00000000 $t
C:\Users\Cihat\AppData\Local\Temp\ccTPXPIa.s:1616   .text.SDMMC_CmdEraseStartAdd:00000000 SDMMC_CmdEraseStartAdd
C:\Users\Cihat\AppData\Local\Temp\ccTPXPIa.s:1668   .text.SDMMC_CmdEraseEndAdd:00000000 $t
C:\Users\Cihat\AppData\Local\Temp\ccTPXPIa.s:1675   .text.SDMMC_CmdEraseEndAdd:00000000 SDMMC_CmdEraseEndAdd
C:\Users\Cihat\AppData\Local\Temp\ccTPXPIa.s:1727   .text.SDMMC_CmdErase:00000000 $t
C:\Users\Cihat\AppData\Local\Temp\ccTPXPIa.s:1734   .text.SDMMC_CmdErase:00000000 SDMMC_CmdErase
C:\Users\Cihat\AppData\Local\Temp\ccTPXPIa.s:1785   .text.SDMMC_CmdStopTransfer:00000000 $t
C:\Users\Cihat\AppData\Local\Temp\ccTPXPIa.s:1792   .text.SDMMC_CmdStopTransfer:00000000 SDMMC_CmdStopTransfer
C:\Users\Cihat\AppData\Local\Temp\ccTPXPIa.s:1843   .text.SDMMC_CmdStopTransfer:00000030 $d
C:\Users\Cihat\AppData\Local\Temp\ccTPXPIa.s:1848   .text.SDMMC_CmdSelDesel:00000000 $t
C:\Users\Cihat\AppData\Local\Temp\ccTPXPIa.s:1855   .text.SDMMC_CmdSelDesel:00000000 SDMMC_CmdSelDesel
C:\Users\Cihat\AppData\Local\Temp\ccTPXPIa.s:1906   .text.SDMMC_CmdGoIdleState:00000000 $t
C:\Users\Cihat\AppData\Local\Temp\ccTPXPIa.s:1913   .text.SDMMC_CmdGoIdleState:00000000 SDMMC_CmdGoIdleState
C:\Users\Cihat\AppData\Local\Temp\ccTPXPIa.s:1959   .text.SDMMC_CmdOperCond:00000000 $t
C:\Users\Cihat\AppData\Local\Temp\ccTPXPIa.s:1966   .text.SDMMC_CmdOperCond:00000000 SDMMC_CmdOperCond
C:\Users\Cihat\AppData\Local\Temp\ccTPXPIa.s:2015   .text.SDMMC_CmdAppCommand:00000000 $t
C:\Users\Cihat\AppData\Local\Temp\ccTPXPIa.s:2022   .text.SDMMC_CmdAppCommand:00000000 SDMMC_CmdAppCommand
C:\Users\Cihat\AppData\Local\Temp\ccTPXPIa.s:2074   .text.SDMMC_CmdAppOperCommand:00000000 $t
C:\Users\Cihat\AppData\Local\Temp\ccTPXPIa.s:2081   .text.SDMMC_CmdAppOperCommand:00000000 SDMMC_CmdAppOperCommand
C:\Users\Cihat\AppData\Local\Temp\ccTPXPIa.s:2132   .text.SDMMC_CmdBusWidth:00000000 $t
C:\Users\Cihat\AppData\Local\Temp\ccTPXPIa.s:2139   .text.SDMMC_CmdBusWidth:00000000 SDMMC_CmdBusWidth
C:\Users\Cihat\AppData\Local\Temp\ccTPXPIa.s:2191   .text.SDMMC_CmdSendSCR:00000000 $t
C:\Users\Cihat\AppData\Local\Temp\ccTPXPIa.s:2198   .text.SDMMC_CmdSendSCR:00000000 SDMMC_CmdSendSCR
C:\Users\Cihat\AppData\Local\Temp\ccTPXPIa.s:2249   .text.SDMMC_CmdSendCID:00000000 $t
C:\Users\Cihat\AppData\Local\Temp\ccTPXPIa.s:2256   .text.SDMMC_CmdSendCID:00000000 SDMMC_CmdSendCID
C:\Users\Cihat\AppData\Local\Temp\ccTPXPIa.s:2304   .text.SDMMC_CmdSendCSD:00000000 $t
C:\Users\Cihat\AppData\Local\Temp\ccTPXPIa.s:2311   .text.SDMMC_CmdSendCSD:00000000 SDMMC_CmdSendCSD
C:\Users\Cihat\AppData\Local\Temp\ccTPXPIa.s:2360   .text.SDMMC_CmdSetRelAdd:00000000 $t
C:\Users\Cihat\AppData\Local\Temp\ccTPXPIa.s:2367   .text.SDMMC_CmdSetRelAdd:00000000 SDMMC_CmdSetRelAdd
C:\Users\Cihat\AppData\Local\Temp\ccTPXPIa.s:2421   .text.SDMMC_CmdSendStatus:00000000 $t
C:\Users\Cihat\AppData\Local\Temp\ccTPXPIa.s:2428   .text.SDMMC_CmdSendStatus:00000000 SDMMC_CmdSendStatus
C:\Users\Cihat\AppData\Local\Temp\ccTPXPIa.s:2480   .text.SDMMC_CmdStatusRegister:00000000 $t
C:\Users\Cihat\AppData\Local\Temp\ccTPXPIa.s:2487   .text.SDMMC_CmdStatusRegister:00000000 SDMMC_CmdStatusRegister
C:\Users\Cihat\AppData\Local\Temp\ccTPXPIa.s:2538   .text.SDMMC_CmdOpCondition:00000000 $t
C:\Users\Cihat\AppData\Local\Temp\ccTPXPIa.s:2545   .text.SDMMC_CmdOpCondition:00000000 SDMMC_CmdOpCondition
C:\Users\Cihat\AppData\Local\Temp\ccTPXPIa.s:2594   .text.SDMMC_CmdSwitch:00000000 $t
C:\Users\Cihat\AppData\Local\Temp\ccTPXPIa.s:2601   .text.SDMMC_CmdSwitch:00000000 SDMMC_CmdSwitch
C:\Users\Cihat\AppData\Local\Temp\ccTPXPIa.s:2653   .text.SDMMC_CmdSendEXTCSD:00000000 $t
C:\Users\Cihat\AppData\Local\Temp\ccTPXPIa.s:2660   .text.SDMMC_CmdSendEXTCSD:00000000 SDMMC_CmdSendEXTCSD

UNDEFINED SYMBOLS
SystemCoreClock
HAL_Delay
